Component: ARM Compiler 5.06 update 6 (build 750) Tool: armlink [4d35ed]

==============================================================================

Section Cross References

    system_gd32f10x.o(i.SystemCoreClockUpdate) refers to system_gd32f10x.o(.data) for SystemCoreClock
    system_gd32f10x.o(i.SystemInit) refers to system_gd32f10x.o(i.system_clock_config) for system_clock_config
    system_gd32f10x.o(i.SystemInit) refers to gd32f10x_misc.o(i.nvic_vector_table_set) for nvic_vector_table_set
    system_gd32f10x.o(i.system_clock_config) refers to system_gd32f10x.o(i.system_clock_108m_hxtal) for system_clock_108m_hxtal
    startup_gd32f10x_md.o(RESET) refers to startup_gd32f10x_md.o(STACK) for __initial_sp
    startup_gd32f10x_md.o(RESET) refers to startup_gd32f10x_md.o(.text) for Reset_Handler
    startup_gd32f10x_md.o(RESET) refers to gd32f10x_it.o(i.NMI_Handler) for NMI_Handler
    startup_gd32f10x_md.o(RESET) refers to gd32f10x_it.o(i.HardFault_Handler) for HardFault_Handler
    startup_gd32f10x_md.o(RESET) refers to gd32f10x_it.o(i.MemManage_Handler) for MemManage_Handler
    startup_gd32f10x_md.o(RESET) refers to gd32f10x_it.o(i.BusFault_Handler) for BusFault_Handler
    startup_gd32f10x_md.o(RESET) refers to gd32f10x_it.o(i.UsageFault_Handler) for UsageFault_Handler
    startup_gd32f10x_md.o(RESET) refers to gd32f10x_it.o(i.SVC_Handler) for SVC_Handler
    startup_gd32f10x_md.o(RESET) refers to gd32f10x_it.o(i.DebugMon_Handler) for DebugMon_Handler
    startup_gd32f10x_md.o(RESET) refers to gd32f10x_it.o(i.PendSV_Handler) for PendSV_Handler
    startup_gd32f10x_md.o(RESET) refers to gd32f10x_it.o(i.SysTick_Handler) for SysTick_Handler
    startup_gd32f10x_md.o(RESET) refers to hw_timer.o(i.TIMER1_IRQHandler) for TIMER1_IRQHandler
    startup_gd32f10x_md.o(RESET) refers to hw_timer.o(i.TIMER2_IRQHandler) for TIMER2_IRQHandler
    startup_gd32f10x_md.o(RESET) refers to hw_uart.o(i.USART0_IRQHandler) for USART0_IRQHandler
    startup_gd32f10x_md.o(RESET) refers to hw_uart.o(i.USART1_IRQHandler) for USART1_IRQHandler
    startup_gd32f10x_md.o(RESET) refers to hw_uart.o(i.USART2_IRQHandler) for USART2_IRQHandler
    startup_gd32f10x_md.o(RESET) refers to hw_exit.o(i.EXTI10_15_IRQHandler) for EXTI10_15_IRQHandler
    startup_gd32f10x_md.o(.text) refers to system_gd32f10x.o(i.SystemInit) for SystemInit
    startup_gd32f10x_md.o(.text) refers to entry.o(.ARM.Collect$$$$00000000) for __main
    gd32f10x_adc.o(i.adc_deinit) refers to gd32f10x_rcu.o(i.rcu_periph_reset_enable) for rcu_periph_reset_enable
    gd32f10x_adc.o(i.adc_deinit) refers to gd32f10x_rcu.o(i.rcu_periph_reset_disable) for rcu_periph_reset_disable
    gd32f10x_bkp.o(i.bkp_deinit) refers to gd32f10x_rcu.o(i.rcu_bkp_reset_enable) for rcu_bkp_reset_enable
    gd32f10x_bkp.o(i.bkp_deinit) refers to gd32f10x_rcu.o(i.rcu_bkp_reset_disable) for rcu_bkp_reset_disable
    gd32f10x_can.o(i.can_debug_freeze_disable) refers to gd32f10x_dbg.o(i.dbg_periph_enable) for dbg_periph_enable
    gd32f10x_can.o(i.can_debug_freeze_enable) refers to gd32f10x_dbg.o(i.dbg_periph_enable) for dbg_periph_enable
    gd32f10x_can.o(i.can_deinit) refers to gd32f10x_rcu.o(i.rcu_periph_reset_enable) for rcu_periph_reset_enable
    gd32f10x_can.o(i.can_deinit) refers to gd32f10x_rcu.o(i.rcu_periph_reset_disable) for rcu_periph_reset_disable
    gd32f10x_can.o(i.can_interrupt_flag_get) refers to gd32f10x_can.o(i.can_receive_message_length_get) for can_receive_message_length_get
    gd32f10x_can.o(i.can_interrupt_flag_get) refers to gd32f10x_can.o(i.can_error_get) for can_error_get
    gd32f10x_dac.o(i.dac_deinit) refers to gd32f10x_rcu.o(i.rcu_periph_reset_enable) for rcu_periph_reset_enable
    gd32f10x_dac.o(i.dac_deinit) refers to gd32f10x_rcu.o(i.rcu_periph_reset_disable) for rcu_periph_reset_disable
    gd32f10x_dma.o(i.dma_channel_disable) refers to gd32f10x_dma.o(i.dma_periph_and_channel_check) for dma_periph_and_channel_check
    gd32f10x_dma.o(i.dma_channel_enable) refers to gd32f10x_dma.o(i.dma_periph_and_channel_check) for dma_periph_and_channel_check
    gd32f10x_dma.o(i.dma_circulation_disable) refers to gd32f10x_dma.o(i.dma_periph_and_channel_check) for dma_periph_and_channel_check
    gd32f10x_dma.o(i.dma_circulation_enable) refers to gd32f10x_dma.o(i.dma_periph_and_channel_check) for dma_periph_and_channel_check
    gd32f10x_dma.o(i.dma_deinit) refers to gd32f10x_dma.o(i.dma_periph_and_channel_check) for dma_periph_and_channel_check
    gd32f10x_dma.o(i.dma_init) refers to gd32f10x_dma.o(i.dma_periph_and_channel_check) for dma_periph_and_channel_check
    gd32f10x_dma.o(i.dma_interrupt_disable) refers to gd32f10x_dma.o(i.dma_periph_and_channel_check) for dma_periph_and_channel_check
    gd32f10x_dma.o(i.dma_interrupt_enable) refers to gd32f10x_dma.o(i.dma_periph_and_channel_check) for dma_periph_and_channel_check
    gd32f10x_dma.o(i.dma_memory_address_config) refers to gd32f10x_dma.o(i.dma_periph_and_channel_check) for dma_periph_and_channel_check
    gd32f10x_dma.o(i.dma_memory_increase_disable) refers to gd32f10x_dma.o(i.dma_periph_and_channel_check) for dma_periph_and_channel_check
    gd32f10x_dma.o(i.dma_memory_increase_enable) refers to gd32f10x_dma.o(i.dma_periph_and_channel_check) for dma_periph_and_channel_check
    gd32f10x_dma.o(i.dma_memory_to_memory_disable) refers to gd32f10x_dma.o(i.dma_periph_and_channel_check) for dma_periph_and_channel_check
    gd32f10x_dma.o(i.dma_memory_to_memory_enable) refers to gd32f10x_dma.o(i.dma_periph_and_channel_check) for dma_periph_and_channel_check
    gd32f10x_dma.o(i.dma_memory_width_config) refers to gd32f10x_dma.o(i.dma_periph_and_channel_check) for dma_periph_and_channel_check
    gd32f10x_dma.o(i.dma_periph_address_config) refers to gd32f10x_dma.o(i.dma_periph_and_channel_check) for dma_periph_and_channel_check
    gd32f10x_dma.o(i.dma_periph_increase_disable) refers to gd32f10x_dma.o(i.dma_periph_and_channel_check) for dma_periph_and_channel_check
    gd32f10x_dma.o(i.dma_periph_increase_enable) refers to gd32f10x_dma.o(i.dma_periph_and_channel_check) for dma_periph_and_channel_check
    gd32f10x_dma.o(i.dma_periph_width_config) refers to gd32f10x_dma.o(i.dma_periph_and_channel_check) for dma_periph_and_channel_check
    gd32f10x_dma.o(i.dma_priority_config) refers to gd32f10x_dma.o(i.dma_periph_and_channel_check) for dma_periph_and_channel_check
    gd32f10x_dma.o(i.dma_transfer_direction_config) refers to gd32f10x_dma.o(i.dma_periph_and_channel_check) for dma_periph_and_channel_check
    gd32f10x_dma.o(i.dma_transfer_number_config) refers to gd32f10x_dma.o(i.dma_periph_and_channel_check) for dma_periph_and_channel_check
    gd32f10x_dma.o(i.dma_transfer_number_get) refers to gd32f10x_dma.o(i.dma_periph_and_channel_check) for dma_periph_and_channel_check
    gd32f10x_fmc.o(i.fmc_bank0_erase) refers to gd32f10x_fmc.o(i.fmc_bank0_ready_wait) for fmc_bank0_ready_wait
    gd32f10x_fmc.o(i.fmc_bank0_ready_wait) refers to gd32f10x_fmc.o(i.fmc_bank0_state_get) for fmc_bank0_state_get
    gd32f10x_fmc.o(i.fmc_bank1_erase) refers to gd32f10x_fmc.o(i.fmc_bank1_ready_wait) for fmc_bank1_ready_wait
    gd32f10x_fmc.o(i.fmc_bank1_ready_wait) refers to gd32f10x_fmc.o(i.fmc_bank1_state_get) for fmc_bank1_state_get
    gd32f10x_fmc.o(i.fmc_halfword_program) refers to gd32f10x_fmc.o(i.fmc_bank0_ready_wait) for fmc_bank0_ready_wait
    gd32f10x_fmc.o(i.fmc_halfword_program) refers to gd32f10x_fmc.o(i.fmc_bank1_ready_wait) for fmc_bank1_ready_wait
    gd32f10x_fmc.o(i.fmc_mass_erase) refers to gd32f10x_fmc.o(i.fmc_bank0_ready_wait) for fmc_bank0_ready_wait
    gd32f10x_fmc.o(i.fmc_mass_erase) refers to gd32f10x_fmc.o(i.fmc_bank1_ready_wait) for fmc_bank1_ready_wait
    gd32f10x_fmc.o(i.fmc_page_erase) refers to gd32f10x_fmc.o(i.fmc_bank0_ready_wait) for fmc_bank0_ready_wait
    gd32f10x_fmc.o(i.fmc_page_erase) refers to gd32f10x_fmc.o(i.fmc_bank1_ready_wait) for fmc_bank1_ready_wait
    gd32f10x_fmc.o(i.fmc_word_program) refers to gd32f10x_fmc.o(i.fmc_bank0_ready_wait) for fmc_bank0_ready_wait
    gd32f10x_fmc.o(i.fmc_word_program) refers to gd32f10x_fmc.o(i.fmc_bank1_ready_wait) for fmc_bank1_ready_wait
    gd32f10x_fmc.o(i.ob_data_program) refers to gd32f10x_fmc.o(i.fmc_bank0_ready_wait) for fmc_bank0_ready_wait
    gd32f10x_fmc.o(i.ob_erase) refers to gd32f10x_fmc.o(i.fmc_bank0_ready_wait) for fmc_bank0_ready_wait
    gd32f10x_fmc.o(i.ob_erase) refers to gd32f10x_fmc.o(i.ob_spc_get) for ob_spc_get
    gd32f10x_fmc.o(i.ob_security_protection_config) refers to gd32f10x_fmc.o(i.fmc_bank0_ready_wait) for fmc_bank0_ready_wait
    gd32f10x_fmc.o(i.ob_user_write) refers to gd32f10x_fmc.o(i.fmc_bank0_ready_wait) for fmc_bank0_ready_wait
    gd32f10x_fmc.o(i.ob_write_protection_enable) refers to gd32f10x_fmc.o(i.fmc_bank0_ready_wait) for fmc_bank0_ready_wait
    gd32f10x_gpio.o(i.gpio_afio_deinit) refers to gd32f10x_rcu.o(i.rcu_periph_reset_enable) for rcu_periph_reset_enable
    gd32f10x_gpio.o(i.gpio_afio_deinit) refers to gd32f10x_rcu.o(i.rcu_periph_reset_disable) for rcu_periph_reset_disable
    gd32f10x_gpio.o(i.gpio_deinit) refers to gd32f10x_rcu.o(i.rcu_periph_reset_enable) for rcu_periph_reset_enable
    gd32f10x_gpio.o(i.gpio_deinit) refers to gd32f10x_rcu.o(i.rcu_periph_reset_disable) for rcu_periph_reset_disable
    gd32f10x_i2c.o(i.i2c_clock_config) refers to gd32f10x_rcu.o(i.rcu_clock_freq_get) for rcu_clock_freq_get
    gd32f10x_i2c.o(i.i2c_deinit) refers to gd32f10x_rcu.o(i.rcu_periph_reset_enable) for rcu_periph_reset_enable
    gd32f10x_i2c.o(i.i2c_deinit) refers to gd32f10x_rcu.o(i.rcu_periph_reset_disable) for rcu_periph_reset_disable
    gd32f10x_misc.o(i.nvic_irq_enable) refers to gd32f10x_misc.o(i.nvic_priority_group_set) for nvic_priority_group_set
    gd32f10x_pmu.o(i.pmu_deinit) refers to gd32f10x_rcu.o(i.rcu_periph_reset_enable) for rcu_periph_reset_enable
    gd32f10x_pmu.o(i.pmu_deinit) refers to gd32f10x_rcu.o(i.rcu_periph_reset_disable) for rcu_periph_reset_disable
    gd32f10x_pmu.o(i.pmu_to_deepsleepmode) refers to gd32f10x_pmu.o(.bss) for reg_snap
    gd32f10x_rcu.o(i.rcu_deinit) refers to gd32f10x_rcu.o(i.rcu_osci_stab_wait) for rcu_osci_stab_wait
    gd32f10x_rcu.o(i.rcu_osci_stab_wait) refers to gd32f10x_rcu.o(i.rcu_flag_get) for rcu_flag_get
    gd32f10x_rtc.o(i.rtc_alarm_config) refers to gd32f10x_rtc.o(i.rtc_configuration_mode_enter) for rtc_configuration_mode_enter
    gd32f10x_rtc.o(i.rtc_alarm_config) refers to gd32f10x_rtc.o(i.rtc_configuration_mode_exit) for rtc_configuration_mode_exit
    gd32f10x_rtc.o(i.rtc_counter_set) refers to gd32f10x_rtc.o(i.rtc_configuration_mode_enter) for rtc_configuration_mode_enter
    gd32f10x_rtc.o(i.rtc_counter_set) refers to gd32f10x_rtc.o(i.rtc_configuration_mode_exit) for rtc_configuration_mode_exit
    gd32f10x_rtc.o(i.rtc_prescaler_set) refers to gd32f10x_rtc.o(i.rtc_configuration_mode_enter) for rtc_configuration_mode_enter
    gd32f10x_rtc.o(i.rtc_prescaler_set) refers to gd32f10x_rtc.o(i.rtc_configuration_mode_exit) for rtc_configuration_mode_exit
    gd32f10x_spi.o(i.i2s_psc_config) refers to gd32f10x_rcu.o(i.rcu_clock_freq_get) for rcu_clock_freq_get
    gd32f10x_spi.o(i.spi_i2s_deinit) refers to gd32f10x_rcu.o(i.rcu_periph_reset_enable) for rcu_periph_reset_enable
    gd32f10x_spi.o(i.spi_i2s_deinit) refers to gd32f10x_rcu.o(i.rcu_periph_reset_disable) for rcu_periph_reset_disable
    gd32f10x_timer.o(i.timer_deinit) refers to gd32f10x_rcu.o(i.rcu_periph_reset_enable) for rcu_periph_reset_enable
    gd32f10x_timer.o(i.timer_deinit) refers to gd32f10x_rcu.o(i.rcu_periph_reset_disable) for rcu_periph_reset_disable
    gd32f10x_timer.o(i.timer_external_clock_mode0_config) refers to gd32f10x_timer.o(i.timer_external_trigger_config) for timer_external_trigger_config
    gd32f10x_timer.o(i.timer_external_clock_mode1_config) refers to gd32f10x_timer.o(i.timer_external_trigger_config) for timer_external_trigger_config
    gd32f10x_timer.o(i.timer_external_trigger_as_external_clock_config) refers to gd32f10x_timer.o(i.timer_input_trigger_source_select) for timer_input_trigger_source_select
    gd32f10x_timer.o(i.timer_input_capture_config) refers to gd32f10x_timer.o(i.timer_channel_input_capture_prescaler_config) for timer_channel_input_capture_prescaler_config
    gd32f10x_timer.o(i.timer_input_pwm_capture_config) refers to gd32f10x_timer.o(i.timer_channel_input_capture_prescaler_config) for timer_channel_input_capture_prescaler_config
    gd32f10x_timer.o(i.timer_internal_trigger_as_external_clock_config) refers to gd32f10x_timer.o(i.timer_input_trigger_source_select) for timer_input_trigger_source_select
    gd32f10x_usart.o(i.usart_baudrate_set) refers to gd32f10x_rcu.o(i.rcu_clock_freq_get) for rcu_clock_freq_get
    gd32f10x_usart.o(i.usart_deinit) refers to gd32f10x_rcu.o(i.rcu_periph_reset_enable) for rcu_periph_reset_enable
    gd32f10x_usart.o(i.usart_deinit) refers to gd32f10x_rcu.o(i.rcu_periph_reset_disable) for rcu_periph_reset_disable
    gd32f10x_wwdgt.o(i.wwdgt_deinit) refers to gd32f10x_rcu.o(i.rcu_periph_reset_enable) for rcu_periph_reset_enable
    gd32f10x_wwdgt.o(i.wwdgt_deinit) refers to gd32f10x_rcu.o(i.rcu_periph_reset_disable) for rcu_periph_reset_disable
    main.o(i.CheckLedNormal) refers to wh_nb73.o(.bss) for NbInfo
    main.o(i.main) refers to init.o(i.MCU_Init) for MCU_Init
    main.o(i.main) refers to ds18b20.o(i.DS18B20GetIntTemp) for DS18B20GetIntTemp
    main.o(i.main) refers to hw_exit.o(i.GetChannel3_Status) for GetChannel3_Status
    main.o(i.main) refers to cj2301.o(i.Cj2301_Init) for Cj2301_Init
    main.o(i.main) refers to cj2301.o(i.Cj2301_Read) for Cj2301_Read
    main.o(i.main) refers to hw_exit.o(i.GetExitPinVal) for GetExitPinVal
    main.o(i.main) refers to hw_exit.o(i.SignalCheck) for SignalCheck
    main.o(i.main) refers to isl1208.o(i.GetRtcTime) for GetRtcTime
    main.o(i.main) refers to main.o(i.CheckLedNormal) for CheckLedNormal
    main.o(i.main) refers to hw_fmc.o(i.StoreInfoCheck) for StoreInfoCheck
    main.o(i.main) refers to wh_nb73.o(i.NB_Control) for NB_Control
    main.o(i.main) refers to modbus.o(i.ModbusProtocol) for ModbusProtocol
    main.o(i.main) refers to protocol.o(i.ProtocolTask) for ProtocolTask
    main.o(i.main) refers to hw_uart.o(i.CommunGetData) for CommunGetData
    main.o(i.main) refers to hw_uart.o(i.HostUartSendBuf) for HostUartSendBuf
    main.o(i.main) refers to protocol.o(i.ParsePro) for ParsePro
    main.o(i.main) refers to hw_uart.o(i.CommunCheck) for CommunCheck
    main.o(i.main) refers to init.o(.data) for systemFlag
    systick.o(i.delay_1ms) refers to ffltui.o(.text) for __aeabi_ui2f
    systick.o(i.delay_1ms) refers to fmul.o(.text) for __aeabi_fmul
    systick.o(i.delay_1ms) refers to ffixui.o(.text) for __aeabi_f2uiz
    systick.o(i.delay_1ms) refers to systick.o(.data) for count_1ms
    systick.o(i.delay_1us) refers to ffltui.o(.text) for __aeabi_ui2f
    systick.o(i.delay_1us) refers to fmul.o(.text) for __aeabi_fmul
    systick.o(i.delay_1us) refers to ffixui.o(.text) for __aeabi_f2uiz
    systick.o(i.delay_1us) refers to systick.o(.data) for count_1us
    systick.o(i.systick_config) refers to gd32f10x_misc.o(i.systick_clksource_set) for systick_clksource_set
    systick.o(i.systick_config) refers to ffltui.o(.text) for __aeabi_ui2f
    systick.o(i.systick_config) refers to fdiv.o(.text) for __aeabi_fdiv
    systick.o(i.systick_config) refers to fmul.o(.text) for __aeabi_fmul
    systick.o(i.systick_config) refers to system_gd32f10x.o(.data) for SystemCoreClock
    systick.o(i.systick_config) refers to systick.o(.data) for count_1us
    init.o(i.BackUpAdd) refers to init.o(.bss) for BackUpInfo
    init.o(i.BackUpAdd) refers to wh_nb73.o(.bss) for NbInfo
    init.o(i.BackUpClearOne) refers to init.o(.bss) for BackUpInfo
    init.o(i.GpioInit) refers to gd32f10x_gpio.o(i.gpio_init) for gpio_init
    init.o(i.GpioInit) refers to gd32f10x_gpio.o(i.gpio_input_bit_get) for gpio_input_bit_get
    init.o(i.GpioInit) refers to init.o(.data) for systemFlag
    init.o(i.MCU_Init) refers to systick.o(i.systick_config) for systick_config
    init.o(i.MCU_Init) refers to init.o(i.RcuClockInit) for RcuClockInit
    init.o(i.MCU_Init) refers to hw_timer.o(i.nvic_config) for nvic_config
    init.o(i.MCU_Init) refers to init.o(i.VarInit) for VarInit
    init.o(i.MCU_Init) refers to hw_fmc.o(i.FMC_StoreInfoInit) for FMC_StoreInfoInit
    init.o(i.MCU_Init) refers to init.o(i.GpioInit) for GpioInit
    init.o(i.MCU_Init) refers to hw_uart.o(i.UartInit) for UartInit
    init.o(i.MCU_Init) refers to printfa.o(i.__0printf) for __2printf
    init.o(i.MCU_Init) refers to hw_timer.o(i.Timer_1ms_Init) for Timer_1ms_Init
    init.o(i.MCU_Init) refers to hw_timer.o(i.SignalTimerInit) for SignalTimerInit
    init.o(i.MCU_Init) refers to hw_exit.o(i.ExitInit) for ExitInit
    init.o(i.MCU_Init) refers to hw_i2c.o(i.I2C_Init) for I2C_Init
    init.o(i.MCU_Init) refers to isl1208.o(i.Isl1208Init) for Isl1208Init
    init.o(i.MCU_Init) refers to ds18b20.o(i.DS18B20_Init) for DS18B20_Init
    init.o(i.MCU_Init) refers to init.o(.data) for Version
    init.o(i.RcuClockInit) refers to gd32f10x_rcu.o(i.rcu_periph_clock_enable) for rcu_periph_clock_enable
    init.o(i.RcuClockInit) refers to gd32f10x_gpio.o(i.gpio_pin_remap_config) for gpio_pin_remap_config
    init.o(i.VarInit) refers to memseta.o(.text) for __aeabi_memclr4
    init.o(i.VarInit) refers to rand.o(.text) for rand
    init.o(i.VarInit) refers to isl1208.o(i.UTC_to_Unix) for UTC_to_Unix
    init.o(i.VarInit) refers to wh_nb73.o(i.NbResetEnable) for NbResetEnable
    init.o(i.VarInit) refers to commucateslave.o(i.PakStuctInit) for PakStuctInit
    init.o(i.VarInit) refers to modbus.o(i.modbusValInit) for modbusValInit
    init.o(i.VarInit) refers to init.o(.data) for systemFlag
    init.o(i.VarInit) refers to init.o(.bss) for SigInfo
    init.o(i.VarInit) refers to wh_nb73.o(.bss) for NbInfo
    init.o(i.VarInit) refers to isl1208.o(.bss) for TimeStr
    modbus.o(i.CheckTemMax) refers to modbus.o(.bss) for TempHumiData
    modbus.o(i.CheckTemMin) refers to modbus.o(.bss) for TempHumiData
    modbus.o(i.ExitBypassParse) refers to modbus.o(.data) for step
    modbus.o(i.ExitBypassParse) refers to init.o(.data) for systemFlag
    modbus.o(i.GetBaudRateH) refers to wh_nb73.o(.bss) for StoreConf
    modbus.o(i.GetBaudRateL) refers to wh_nb73.o(.bss) for StoreConf
    modbus.o(i.GetCh3_Set) refers to wh_nb73.o(.bss) for StoreConf
    modbus.o(i.GetChannel4Alarm) refers to wh_nb73.o(.bss) for NbInfo
    modbus.o(i.GetCloseAbnormal) refers to wh_nb73.o(.bss) for NbInfo
    modbus.o(i.GetCloseAlarm) refers to wh_nb73.o(.bss) for NbInfo
    modbus.o(i.GetCloseFlag) refers to wh_nb73.o(.bss) for NbInfo
    modbus.o(i.GetCloseFlag) refers to init.o(.bss) for StoreInfo
    modbus.o(i.GetCloseFlag) refers to modbus.o(.data) for readFlag
    modbus.o(i.GetCloseTime) refers to wh_nb73.o(.bss) for NbInfo
    modbus.o(i.GetCloseTime) refers to modbus.o(.data) for readFlag
    modbus.o(i.GetCloseTime) refers to init.o(.bss) for StoreInfo
    modbus.o(i.GetCloseUnixH) refers to wh_nb73.o(.bss) for NbInfo
    modbus.o(i.GetCloseUnixH) refers to modbus.o(.data) for readFlag
    modbus.o(i.GetCloseUnixH) refers to init.o(.bss) for StoreInfo
    modbus.o(i.GetCloseUnixL) refers to hw_fmc.o(i.CheckCRC) for CheckCRC
    modbus.o(i.GetCloseUnixL) refers to hw_fmc.o(i.WriteStoreInfo) for WriteStoreInfo
    modbus.o(i.GetCloseUnixL) refers to wh_nb73.o(.bss) for NbInfo
    modbus.o(i.GetCloseUnixL) refers to modbus.o(.data) for readFlag
    modbus.o(i.GetCloseUnixL) refers to init.o(.bss) for StoreInfo
    modbus.o(i.GetDeviceStatus) refers to wh_nb73.o(.bss) for NbInfo
    modbus.o(i.GetExterTem) refers to wh_nb73.o(.bss) for NbInfo
    modbus.o(i.GetHumi) refers to wh_nb73.o(.bss) for NbInfo
    modbus.o(i.GetHumiAbnormal) refers to wh_nb73.o(.bss) for NbInfo
    modbus.o(i.GetInterTem) refers to wh_nb73.o(.bss) for NbInfo
    modbus.o(i.GetOpenAbnormal) refers to wh_nb73.o(.bss) for NbInfo
    modbus.o(i.GetOpenAlarm) refers to wh_nb73.o(.bss) for NbInfo
    modbus.o(i.GetOpenCloseFlag) refers to wh_nb73.o(.bss) for NbInfo
    modbus.o(i.GetOpenCloseFlag) refers to init.o(.bss) for StoreInfo
    modbus.o(i.GetOpenCloseFlag) refers to modbus.o(.data) for readFlag
    modbus.o(i.GetOpenCloseTime) refers to wh_nb73.o(.bss) for NbInfo
    modbus.o(i.GetOpenCloseTime) refers to modbus.o(.data) for readFlag
    modbus.o(i.GetOpenCloseTime) refers to init.o(.bss) for StoreInfo
    modbus.o(i.GetOpenCloseUnixH) refers to wh_nb73.o(.bss) for NbInfo
    modbus.o(i.GetOpenCloseUnixH) refers to modbus.o(.data) for readFlag
    modbus.o(i.GetOpenCloseUnixH) refers to init.o(.bss) for StoreInfo
    modbus.o(i.GetOpenCloseUnixL) refers to hw_fmc.o(i.CheckCRC) for CheckCRC
    modbus.o(i.GetOpenCloseUnixL) refers to hw_fmc.o(i.WriteStoreInfo) for WriteStoreInfo
    modbus.o(i.GetOpenCloseUnixL) refers to wh_nb73.o(.bss) for NbInfo
    modbus.o(i.GetOpenCloseUnixL) refers to modbus.o(.data) for readFlag
    modbus.o(i.GetOpenCloseUnixL) refers to init.o(.bss) for StoreInfo
    modbus.o(i.GetRTC_TimeH) refers to wh_nb73.o(.bss) for NbInfo
    modbus.o(i.GetRTC_TimeL) refers to wh_nb73.o(.bss) for NbInfo
    modbus.o(i.GetSlaveId) refers to wh_nb73.o(.bss) for StoreConf
    modbus.o(i.GetTemAbnormal) refers to wh_nb73.o(.bss) for NbInfo
    modbus.o(i.GetTemDiffAlarm) refers to wh_nb73.o(.bss) for NbInfo
    modbus.o(i.GetTemSimpleInterval) refers to wh_nb73.o(.bss) for NbInfo
    modbus.o(i.GetUniqueID_HLLL) refers to wh_nb73.o(.bss) for NbInfo
    modbus.o(i.GetUniqueID_LHLL) refers to wh_nb73.o(.bss) for NbInfo
    modbus.o(i.GetUniqueID_LLHL) refers to wh_nb73.o(.bss) for NbInfo
    modbus.o(i.GetUniqueID_LLLH) refers to wh_nb73.o(.bss) for NbInfo
    modbus.o(i.GetWaterTemp) refers to f2d.o(.text) for __aeabi_f2d
    modbus.o(i.GetWaterTemp) refers to dadd.o(.text) for __aeabi_dadd
    modbus.o(i.GetWaterTemp) refers to dmul.o(.text) for __aeabi_dmul
    modbus.o(i.GetWaterTemp) refers to d2f.o(.text) for __aeabi_d2f
    modbus.o(i.GetWaterTemp) refers to ffixui.o(.text) for __aeabi_f2uiz
    modbus.o(i.GetWaterTemp) refers to wh_nb73.o(.bss) for NbInfo
    modbus.o(i.GetWaterTempDiff) refers to fflti.o(.text) for __aeabi_i2f
    modbus.o(i.GetWaterTempDiff) refers to fadd.o(.text) for __aeabi_fsub
    modbus.o(i.GetWaterTempDiff) refers to fmul.o(.text) for __aeabi_fmul
    modbus.o(i.GetWaterTempDiff) refers to ffixui.o(.text) for __aeabi_f2uiz
    modbus.o(i.GetWaterTempDiff) refers to wh_nb73.o(.bss) for NbInfo
    modbus.o(i.GetWl_Diff) refers to modbus.o(i.CheckTemMax) for CheckTemMax
    modbus.o(i.GetWl_Diff) refers to modbus.o(i.CheckTemMin) for CheckTemMin
    modbus.o(i.GetWl_Max) refers to modbus.o(i.CheckTemMax) for CheckTemMax
    modbus.o(i.GetWl_Min) refers to modbus.o(i.CheckTemMin) for CheckTemMin
    modbus.o(i.ModbusProtocol) refers to hw_uart.o(i.HostGetData) for HostGetData
    modbus.o(i.ModbusProtocol) refers to hw_uart.o(i.CommunUartSendBuf) for CommunUartSendBuf
    modbus.o(i.ModbusProtocol) refers to modbus.o(i.ExitBypassParse) for ExitBypassParse
    modbus.o(i.ModbusProtocol) refers to hw_uart.o(i.HostCheck) for HostCheck
    modbus.o(i.ModbusProtocol) refers to modbus.o(i.modbusParse) for modbusParse
    modbus.o(i.ModbusProtocol) refers to commucateslave.o(i.ReceParse) for ReceParse
    modbus.o(i.ModbusProtocol) refers to modbus.o(i.ModbusTimerAct) for ModbusTimerAct
    modbus.o(i.ModbusProtocol) refers to init.o(.data) for systemFlag
    modbus.o(i.ModbusSend) refers to hw_uart.o(i.HostUartSendBuf) for HostUartSendBuf
    modbus.o(i.ModbusTimerAct) refers to modbus.o(i.ModbusTimerDisable) for ModbusTimerDisable
    modbus.o(i.ModbusTimerAct) refers to modbus.o(.data) for modTimer
    modbus.o(i.ModbusTimerAct) refers to modbus.o(.bss) for modbus
    modbus.o(i.ModbusTimerDisable) refers to modbus.o(.data) for modTimer
    modbus.o(i.ModbusTimerEnable) refers to modbus.o(.data) for modTimer
    modbus.o(i.Modbus_Crc_Compute) refers to modbus.o(.data) for crcTb
    modbus.o(i.SetBaudRateH) refers to protocol.o(i.SendMainBoardInfoEnable) for SendMainBoardInfoEnable
    modbus.o(i.SetBaudRateH) refers to wh_nb73.o(.bss) for StoreConf
    modbus.o(i.SetBaudRateL) refers to hw_fmc.o(i.StoreConfStore) for StoreConfStore
    modbus.o(i.SetBaudRateL) refers to hw_uart.o(i.UartHostReinit) for UartHostReinit
    modbus.o(i.SetBaudRateL) refers to wh_nb73.o(.bss) for StoreConf
    modbus.o(i.SetCh3_Set) refers to hw_fmc.o(i.CheckCRC) for CheckCRC
    modbus.o(i.SetCh3_Set) refers to hw_fmc.o(i.WriteStoreConf) for WriteStoreConf
    modbus.o(i.SetCh3_Set) refers to wh_nb73.o(.bss) for StoreConf
    modbus.o(i.SetCloseAbnormal) refers to hw_fmc.o(i.StoreConfUpdate) for StoreConfUpdate
    modbus.o(i.SetCloseAbnormal) refers to wh_nb73.o(.bss) for NbInfo
    modbus.o(i.SetCloseAlarm) refers to hw_fmc.o(i.StoreConfUpdate) for StoreConfUpdate
    modbus.o(i.SetCloseAlarm) refers to wh_nb73.o(.bss) for NbInfo
    modbus.o(i.SetHumiAbnormal) refers to wh_nb73.o(.bss) for NbInfo
    modbus.o(i.SetOpenAbnormal) refers to hw_fmc.o(i.StoreConfUpdate) for StoreConfUpdate
    modbus.o(i.SetOpenAbnormal) refers to wh_nb73.o(.bss) for NbInfo
    modbus.o(i.SetOpenAlarm) refers to hw_fmc.o(i.StoreConfUpdate) for StoreConfUpdate
    modbus.o(i.SetOpenAlarm) refers to wh_nb73.o(.bss) for NbInfo
    modbus.o(i.SetRtcH) refers to modbus.o(.data) for RtcH_data
    modbus.o(i.SetRtcL) refers to isl1208.o(i.Unix_to_UTC) for Unix_to_UTC
    modbus.o(i.SetRtcL) refers to isl1208.o(i.RtcSetTime) for RtcSetTime
    modbus.o(i.SetRtcL) refers to modbus.o(.data) for RtcH_data
    modbus.o(i.SetRtcL) refers to wh_nb73.o(.bss) for NbInfo
    modbus.o(i.SetRtcL) refers to isl1208.o(.bss) for TimeStr
    modbus.o(i.SetSelfHumi) refers to modbus.o(.bss) for TempHumiData
    modbus.o(i.SetSelfHumi) refers to wh_nb73.o(.bss) for NbInfo
    modbus.o(i.SetSelfTemp1) refers to modbus.o(.bss) for TempHumiData
    modbus.o(i.SetSelfTemp1) refers to wh_nb73.o(.bss) for NbInfo
    modbus.o(i.SetSelfTemp2) refers to modbus.o(.bss) for TempHumiData
    modbus.o(i.SetSelfTemp2) refers to wh_nb73.o(.bss) for NbInfo
    modbus.o(i.SetSelfTemp3) refers to modbus.o(.bss) for TempHumiData
    modbus.o(i.SetSelfTemp3) refers to wh_nb73.o(.bss) for NbInfo
    modbus.o(i.SetSelfTemp4) refers to modbus.o(.bss) for TempHumiData
    modbus.o(i.SetSelfTemp4) refers to wh_nb73.o(.bss) for NbInfo
    modbus.o(i.SetSelfTemp5) refers to modbus.o(.bss) for TempHumiData
    modbus.o(i.SetSelfTemp5) refers to wh_nb73.o(.bss) for NbInfo
    modbus.o(i.SetSelfTemp6) refers to modbus.o(.bss) for TempHumiData
    modbus.o(i.SetSelfTemp6) refers to wh_nb73.o(.bss) for NbInfo
    modbus.o(i.SetSlaveID) refers to hw_fmc.o(i.StoreConfStore) for StoreConfStore
    modbus.o(i.SetSlaveID) refers to protocol.o(i.SendMainBoardInfoEnable) for SendMainBoardInfoEnable
    modbus.o(i.SetSlaveID) refers to wh_nb73.o(.bss) for StoreConf
    modbus.o(i.SetTemAbnormal) refers to hw_fmc.o(i.StoreConfUpdate) for StoreConfUpdate
    modbus.o(i.SetTemAbnormal) refers to wh_nb73.o(.bss) for NbInfo
    modbus.o(i.SetTemDiffAlarm) refers to hw_fmc.o(i.StoreConfUpdate) for StoreConfUpdate
    modbus.o(i.SetTemDiffAlarm) refers to wh_nb73.o(.bss) for NbInfo
    modbus.o(i.SetTemSimpleInterval) refers to hw_fmc.o(i.StoreConfUpdate) for StoreConfUpdate
    modbus.o(i.SetTemSimpleInterval) refers to wh_nb73.o(.bss) for NbInfo
    modbus.o(i.modbusAct) refers to memseta.o(.text) for __aeabi_memclr4
    modbus.o(i.modbusAct) refers to modbus.o(i.Modbus_Crc_Compute) for Modbus_Crc_Compute
    modbus.o(i.modbusAct) refers to modbus.o(i.ModbusSend) for ModbusSend
    modbus.o(i.modbusAct) refers to modbus.o(.bss) for modbus
    modbus.o(i.modbusAct) refers to wh_nb73.o(.bss) for StoreConf
    modbus.o(i.modbusAct) refers to modbus.o(.data) for table
    modbus.o(i.modbusParse) refers to modbus.o(i.ModbusTimerEnable) for ModbusTimerEnable
    modbus.o(i.modbusParse) refers to modbus.o(i.Modbus_Crc_Compute) for Modbus_Crc_Compute
    modbus.o(i.modbusParse) refers to modbus.o(i.ModbusTimerDisable) for ModbusTimerDisable
    modbus.o(i.modbusParse) refers to modbus.o(i.modbusAct) for modbusAct
    modbus.o(i.modbusParse) refers to modbus.o(.bss) for modbus
    modbus.o(i.modbusParse) refers to wh_nb73.o(.bss) for StoreConf
    modbus.o(i.modbusParse) refers to modbus.o(.data) for tempLen
    modbus.o(i.modbusValInit) refers to memseta.o(.text) for __aeabi_memclr
    modbus.o(i.modbusValInit) refers to modbus.o(.bss) for modbus
    modbus.o(i.modbusValInit) refers to modbus.o(.data) for modTimer
    modbus.o(.data) refers to modbus.o(i.GetSlaveId) for GetSlaveId
    modbus.o(.data) refers to modbus.o(i.GetBaudRateH) for GetBaudRateH
    modbus.o(.data) refers to modbus.o(i.GetBaudRateL) for GetBaudRateL
    modbus.o(.data) refers to modbus.o(i.GetRTC_TimeH) for GetRTC_TimeH
    modbus.o(.data) refers to modbus.o(i.GetRTC_TimeL) for GetRTC_TimeL
    modbus.o(.data) refers to modbus.o(i.GetTemSimpleInterval) for GetTemSimpleInterval
    modbus.o(.data) refers to modbus.o(i.GetCloseAlarm) for GetCloseAlarm
    modbus.o(.data) refers to modbus.o(i.GetOpenAlarm) for GetOpenAlarm
    modbus.o(.data) refers to modbus.o(i.GetCloseAbnormal) for GetCloseAbnormal
    modbus.o(.data) refers to modbus.o(i.GetOpenAbnormal) for GetOpenAbnormal
    modbus.o(.data) refers to modbus.o(i.GetTemAbnormal) for GetTemAbnormal
    modbus.o(.data) refers to modbus.o(i.GetHumiAbnormal) for GetHumiAbnormal
    modbus.o(.data) refers to modbus.o(i.GetTemDiffAlarm) for GetTemDiffAlarm
    modbus.o(.data) refers to modbus.o(i.GetHwVer) for GetHwVer
    modbus.o(.data) refers to modbus.o(i.GetInterTem) for GetInterTem
    modbus.o(.data) refers to modbus.o(i.GetExterTem) for GetExterTem
    modbus.o(.data) refers to modbus.o(i.GetHumi) for GetHumi
    modbus.o(.data) refers to modbus.o(i.GetChannel4Alarm) for GetChannel4Alarm
    modbus.o(.data) refers to modbus.o(i.GetOpenCloseFlag) for GetOpenCloseFlag
    modbus.o(.data) refers to modbus.o(i.GetOpenCloseTime) for GetOpenCloseTime
    modbus.o(.data) refers to modbus.o(i.GetOpenCloseUnixH) for GetOpenCloseUnixH
    modbus.o(.data) refers to modbus.o(i.GetOpenCloseUnixL) for GetOpenCloseUnixL
    modbus.o(.data) refers to modbus.o(i.GetUniqueID_HLLL) for GetUniqueID_HLLL
    modbus.o(.data) refers to modbus.o(i.GetUniqueID_LHLL) for GetUniqueID_LHLL
    modbus.o(.data) refers to modbus.o(i.GetUniqueID_LLHL) for GetUniqueID_LLHL
    modbus.o(.data) refers to modbus.o(i.GetUniqueID_LLLH) for GetUniqueID_LLLH
    modbus.o(.data) refers to modbus.o(i.GetCloseFlag) for GetCloseFlag
    modbus.o(.data) refers to modbus.o(i.GetCloseTime) for GetCloseTime
    modbus.o(.data) refers to modbus.o(i.GetCloseUnixH) for GetCloseUnixH
    modbus.o(.data) refers to modbus.o(i.GetCloseUnixL) for GetCloseUnixL
    modbus.o(.data) refers to modbus.o(i.GetWaterTempDiff) for GetWaterTempDiff
    modbus.o(.data) refers to modbus.o(i.GetWaterTemp) for GetWaterTemp
    modbus.o(.data) refers to modbus.o(i.GetWl_Max) for GetWl_Max
    modbus.o(.data) refers to modbus.o(i.GetWl_Min) for GetWl_Min
    modbus.o(.data) refers to modbus.o(i.GetWl_Diff) for GetWl_Diff
    modbus.o(.data) refers to modbus.o(i.GetDeviceStatus) for GetDeviceStatus
    modbus.o(.data) refers to modbus.o(i.GetCh3_Set) for GetCh3_Set
    modbus.o(.data) refers to modbus.o(i.SetSlaveID) for SetSlaveID
    modbus.o(.data) refers to modbus.o(i.SetBaudRateH) for SetBaudRateH
    modbus.o(.data) refers to modbus.o(i.SetBaudRateL) for SetBaudRateL
    modbus.o(.data) refers to modbus.o(i.SetRtcH) for SetRtcH
    modbus.o(.data) refers to modbus.o(i.SetRtcL) for SetRtcL
    modbus.o(.data) refers to modbus.o(i.SetTemSimpleInterval) for SetTemSimpleInterval
    modbus.o(.data) refers to modbus.o(i.SetCloseAlarm) for SetCloseAlarm
    modbus.o(.data) refers to modbus.o(i.SetOpenAlarm) for SetOpenAlarm
    modbus.o(.data) refers to modbus.o(i.SetCloseAbnormal) for SetCloseAbnormal
    modbus.o(.data) refers to modbus.o(i.SetOpenAbnormal) for SetOpenAbnormal
    modbus.o(.data) refers to modbus.o(i.SetTemAbnormal) for SetTemAbnormal
    modbus.o(.data) refers to modbus.o(i.SetHumiAbnormal) for SetHumiAbnormal
    modbus.o(.data) refers to modbus.o(i.SetTemDiffAlarm) for SetTemDiffAlarm
    modbus.o(.data) refers to modbus.o(i.SetCh3_Set) for SetCh3_Set
    modbus.o(.data) refers to modbus.o(i.SetSelfTemp1) for SetSelfTemp1
    modbus.o(.data) refers to modbus.o(i.SetSelfTemp2) for SetSelfTemp2
    modbus.o(.data) refers to modbus.o(i.SetSelfTemp3) for SetSelfTemp3
    modbus.o(.data) refers to modbus.o(i.SetSelfTemp4) for SetSelfTemp4
    modbus.o(.data) refers to modbus.o(i.SetSelfTemp5) for SetSelfTemp5
    modbus.o(.data) refers to modbus.o(i.SetSelfTemp6) for SetSelfTemp6
    modbus.o(.data) refers to modbus.o(i.SetSelfHumi) for SetSelfHumi
    commucateslave.o(i.CommunSlaveFun) refers to hw_uart.o(i.CommunCheck) for CommunCheck
    commucateslave.o(i.CommunSlaveFun) refers to hw_uart.o(i.CommunGetData) for CommunGetData
    commucateslave.o(i.CommunSlaveFun) refers to commucateslave.o(i.ReceParse) for ReceParse
    commucateslave.o(i.EnterBypass) refers to commucateslave.o(i.ResponsePak) for ResponsePak
    commucateslave.o(i.EnterBypass) refers to init.o(.data) for systemFlag
    commucateslave.o(i.EnterUpgradeAction) refers to commucateslave.o(i.ResponsePak) for ResponsePak
    commucateslave.o(i.EnterUpgradeAction) refers to systick.o(i.delay_1ms) for delay_1ms
    commucateslave.o(i.PakAction) refers to commucateslave.o(i.EnterUpgradeAction) for EnterUpgradeAction
    commucateslave.o(i.PakAction) refers to commucateslave.o(i.EnterBypass) for EnterBypass
    commucateslave.o(i.PakAction) refers to commucateslave.o(.bss) for PrtocolStr
    commucateslave.o(i.PakStuctInit) refers to memseta.o(.text) for __aeabi_memclr
    commucateslave.o(i.PakStuctInit) refers to commucateslave.o(.bss) for PrtocolStr
    commucateslave.o(i.PakStuctInit) refers to commucateslave.o(.data) for PakTimer
    commucateslave.o(i.PakTimerStart) refers to commucateslave.o(.data) for PakTimer
    commucateslave.o(i.PakTimerStop) refers to commucateslave.o(.data) for PakTimer
    commucateslave.o(i.ReceParse) refers to commucateslave.o(i.PakTimerStart) for PakTimerStart
    commucateslave.o(i.ReceParse) refers to commucateslave.o(i.PakAction) for PakAction
    commucateslave.o(i.ReceParse) refers to commucateslave.o(i.PakTimerStop) for PakTimerStop
    commucateslave.o(i.ReceParse) refers to commucateslave.o(.bss) for PrtocolStr
    commucateslave.o(i.ReceParse) refers to wh_nb73.o(.bss) for StoreConf
    commucateslave.o(i.ReceParse) refers to commucateslave.o(.data) for tempLen
    commucateslave.o(i.ResponsePak) refers to memseta.o(.text) for __aeabi_memclr4
    commucateslave.o(i.ResponsePak) refers to hw_uart.o(i.HostUartSendBuf) for HostUartSendBuf
    commucateslave.o(i.ResponsePak) refers to commucateslave.o(.bss) for PrtocolStr
    protocol.o(i.BuildSendProPak) refers to memseta.o(.text) for __aeabi_memclr4
    protocol.o(i.BuildSendProPak) refers to memcpya.o(.text) for __aeabi_memcpy
    protocol.o(i.BuildSendProPak) refers to modbus.o(i.Modbus_Crc_Compute) for Modbus_Crc_Compute
    protocol.o(i.BuildSendProPak) refers to hw_uart.o(i.CommunUartSendBuf) for CommunUartSendBuf
    protocol.o(i.ClearData) refers to protocol.o(.bss) for ProStr
    protocol.o(i.GetHumiIdDisable) refers to protocol.o(.data) for ProFunctionFlag
    protocol.o(i.GetHumiIdEnable) refers to protocol.o(.data) for ProFunctionFlag
    protocol.o(i.GetHumiIdFun) refers to protocol.o(i.RunGetHumiId) for RunGetHumiId
    protocol.o(i.GetHumiIdFun) refers to protocol.o(.data) for ProFunctionFlag
    protocol.o(i.GetHumiValEnable) refers to protocol.o(.data) for ProFunctionFlag
    protocol.o(i.GetHumiValFun) refers to protocol.o(i.RunGetHumiVal) for RunGetHumiVal
    protocol.o(i.GetHumiValFun) refers to protocol.o(.data) for ProFunctionFlag
    protocol.o(i.GetHumipValDisable) refers to protocol.o(.data) for ProFunctionFlag
    protocol.o(i.GetParseProtocolStatus) refers to protocol.o(.data) for count
    protocol.o(i.GetParseProtocolStatus) refers to protocol.o(.bss) for ProStr
    protocol.o(i.GetTempIdDisable) refers to protocol.o(.data) for ProFunctionFlag
    protocol.o(i.GetTempIdEnable) refers to protocol.o(.data) for ProFunctionFlag
    protocol.o(i.GetTempIdFun) refers to protocol.o(i.RunGetTempId) for RunGetTempId
    protocol.o(i.GetTempIdFun) refers to protocol.o(.data) for ProFunctionFlag
    protocol.o(i.GetTempValDisable) refers to protocol.o(.data) for ProFunctionFlag
    protocol.o(i.GetTempValEnable) refers to protocol.o(.data) for ProFunctionFlag
    protocol.o(i.GetTempValFun) refers to protocol.o(i.RunGetTempVal) for RunGetTempVal
    protocol.o(i.GetTempValFun) refers to protocol.o(.data) for ProFunctionFlag
    protocol.o(i.GetWlStatusDisable) refers to protocol.o(.data) for ProFunctionFlag
    protocol.o(i.GetWlStatusEnable) refers to protocol.o(.data) for ProFunctionFlag
    protocol.o(i.GetWlStatusFun) refers to protocol.o(i.RunGetWlStatus) for RunGetWlStatus
    protocol.o(i.GetWlStatusFun) refers to protocol.o(.data) for ProFunctionFlag
    protocol.o(i.ParsePro) refers to modbus.o(i.Modbus_Crc_Compute) for Modbus_Crc_Compute
    protocol.o(i.ParsePro) refers to protocol.o(.bss) for ProStr
    protocol.o(i.ParsePro) refers to protocol.o(.data) for tempLen
    protocol.o(i.ProCheckRunFunc) refers to protocol.o(i.GetWlStatusEnable) for GetWlStatusEnable
    protocol.o(i.ProCheckRunFunc) refers to protocol.o(i.GetTempIdEnable) for GetTempIdEnable
    protocol.o(i.ProCheckRunFunc) refers to protocol.o(i.GetHumiIdEnable) for GetHumiIdEnable
    protocol.o(i.ProCheckRunFunc) refers to protocol.o(i.GetTempValEnable) for GetTempValEnable
    protocol.o(i.ProCheckRunFunc) refers to protocol.o(i.GetHumiValEnable) for GetHumiValEnable
    protocol.o(i.ProCheckRunFunc) refers to protocol.o(i.SendMainBoardInfoEnable) for SendMainBoardInfoEnable
    protocol.o(i.ProCheckRunFunc) refers to protocol.o(i.SetSelfTempHumiEnable) for SetSelfTempHumiEnable
    protocol.o(i.ProCheckRunFunc) refers to protocol.o(i.SendSignalEnable) for SendSignalEnable
    protocol.o(i.ProCheckRunFunc) refers to protocol.o(i.SetAbnormalEnable) for SetAbnormalEnable
    protocol.o(i.ProCheckRunFunc) refers to protocol.o(.data) for count1
    protocol.o(i.ProCheckRunFunc) refers to wh_nb73.o(.bss) for NbInfo
    protocol.o(i.ProCheckRunFunc) refers to init.o(.bss) for StoreInfo
    protocol.o(i.ProtocolTask) refers to protocol.o(i.ProCheckRunFunc) for ProCheckRunFunc
    protocol.o(i.ProtocolTask) refers to init.o(.data) for systemFlag
    protocol.o(i.ProtocolTask) refers to protocol.o(.data) for funTable
    protocol.o(i.RunGetHumiId) refers to protocol.o(i.ClearData) for ClearData
    protocol.o(i.RunGetHumiId) refers to protocol.o(i.BuildSendProPak) for BuildSendProPak
    protocol.o(i.RunGetHumiId) refers to protocol.o(i.GetParseProtocolStatus) for GetParseProtocolStatus
    protocol.o(i.RunGetHumiId) refers to protocol.o(i.GetHumiIdDisable) for GetHumiIdDisable
    protocol.o(i.RunGetHumiId) refers to protocol.o(.data) for step
    protocol.o(i.RunGetHumiId) refers to protocol.o(.bss) for ProStr
    protocol.o(i.RunGetHumiId) refers to modbus.o(.bss) for TempHumiData
    protocol.o(i.RunGetHumiVal) refers to protocol.o(i.ClearData) for ClearData
    protocol.o(i.RunGetHumiVal) refers to protocol.o(i.BuildSendProPak) for BuildSendProPak
    protocol.o(i.RunGetHumiVal) refers to protocol.o(i.GetParseProtocolStatus) for GetParseProtocolStatus
    protocol.o(i.RunGetHumiVal) refers to protocol.o(i.GetHumipValDisable) for GetHumipValDisable
    protocol.o(i.RunGetHumiVal) refers to protocol.o(.data) for step
    protocol.o(i.RunGetHumiVal) refers to protocol.o(.bss) for ProStr
    protocol.o(i.RunGetHumiVal) refers to modbus.o(.bss) for TempHumiData
    protocol.o(i.RunGetTempId) refers to protocol.o(i.ClearData) for ClearData
    protocol.o(i.RunGetTempId) refers to protocol.o(i.BuildSendProPak) for BuildSendProPak
    protocol.o(i.RunGetTempId) refers to protocol.o(i.GetParseProtocolStatus) for GetParseProtocolStatus
    protocol.o(i.RunGetTempId) refers to protocol.o(i.GetTempIdDisable) for GetTempIdDisable
    protocol.o(i.RunGetTempId) refers to protocol.o(.data) for step
    protocol.o(i.RunGetTempId) refers to protocol.o(.bss) for ProStr
    protocol.o(i.RunGetTempId) refers to modbus.o(.bss) for TempHumiData
    protocol.o(i.RunGetTempVal) refers to protocol.o(i.ClearData) for ClearData
    protocol.o(i.RunGetTempVal) refers to protocol.o(i.BuildSendProPak) for BuildSendProPak
    protocol.o(i.RunGetTempVal) refers to protocol.o(i.GetParseProtocolStatus) for GetParseProtocolStatus
    protocol.o(i.RunGetTempVal) refers to protocol.o(i.GetTempValDisable) for GetTempValDisable
    protocol.o(i.RunGetTempVal) refers to protocol.o(.data) for step
    protocol.o(i.RunGetTempVal) refers to protocol.o(.bss) for ProStr
    protocol.o(i.RunGetTempVal) refers to modbus.o(.bss) for TempHumiData
    protocol.o(i.RunGetWlStatus) refers to protocol.o(i.ClearData) for ClearData
    protocol.o(i.RunGetWlStatus) refers to protocol.o(i.BuildSendProPak) for BuildSendProPak
    protocol.o(i.RunGetWlStatus) refers to protocol.o(i.GetParseProtocolStatus) for GetParseProtocolStatus
    protocol.o(i.RunGetWlStatus) refers to protocol.o(i.SendCommuncationStatusEnable) for SendCommuncationStatusEnable
    protocol.o(i.RunGetWlStatus) refers to protocol.o(i.GetWlStatusDisable) for GetWlStatusDisable
    protocol.o(i.RunGetWlStatus) refers to protocol.o(.data) for step
    protocol.o(i.RunGetWlStatus) refers to protocol.o(.bss) for ProStr
    protocol.o(i.RunSendCommuncationStatus) refers to protocol.o(i.ClearData) for ClearData
    protocol.o(i.RunSendCommuncationStatus) refers to protocol.o(i.BuildSendProPak) for BuildSendProPak
    protocol.o(i.RunSendCommuncationStatus) refers to protocol.o(i.GetParseProtocolStatus) for GetParseProtocolStatus
    protocol.o(i.RunSendCommuncationStatus) refers to protocol.o(i.SendCommuncationStatusDisable) for SendCommuncationStatusDisable
    protocol.o(i.RunSendCommuncationStatus) refers to protocol.o(.data) for step
    protocol.o(i.RunSendMainBoardInfo) refers to memseta.o(.text) for __aeabi_memclr4
    protocol.o(i.RunSendMainBoardInfo) refers to protocol.o(i.ClearData) for ClearData
    protocol.o(i.RunSendMainBoardInfo) refers to memcpya.o(.text) for __aeabi_memcpy
    protocol.o(i.RunSendMainBoardInfo) refers to protocol.o(i.BuildSendProPak) for BuildSendProPak
    protocol.o(i.RunSendMainBoardInfo) refers to protocol.o(i.GetParseProtocolStatus) for GetParseProtocolStatus
    protocol.o(i.RunSendMainBoardInfo) refers to protocol.o(i.SendMainBoardInfoDisable) for SendMainBoardInfoDisable
    protocol.o(i.RunSendMainBoardInfo) refers to protocol.o(.data) for step
    protocol.o(i.RunSendMainBoardInfo) refers to wh_nb73.o(.bss) for StoreConf
    protocol.o(i.RunSendMainBoardInfo) refers to init.o(.data) for Version
    protocol.o(i.RunSendSignal) refers to protocol.o(i.ClearData) for ClearData
    protocol.o(i.RunSendSignal) refers to protocol.o(i.BuildSendProPak) for BuildSendProPak
    protocol.o(i.RunSendSignal) refers to protocol.o(i.GetParseProtocolStatus) for GetParseProtocolStatus
    protocol.o(i.RunSendSignal) refers to protocol.o(i.SendSignalDisable) for SendSignalDisable
    protocol.o(i.RunSendSignal) refers to protocol.o(.data) for step
    protocol.o(i.RunSetAbnormal) refers to protocol.o(i.ClearData) for ClearData
    protocol.o(i.RunSetAbnormal) refers to protocol.o(i.BuildSendProPak) for BuildSendProPak
    protocol.o(i.RunSetAbnormal) refers to protocol.o(i.GetParseProtocolStatus) for GetParseProtocolStatus
    protocol.o(i.RunSetAbnormal) refers to protocol.o(i.SetAbnormalDisable) for SetAbnormalDisable
    protocol.o(i.RunSetAbnormal) refers to protocol.o(.data) for step
    protocol.o(i.RunSetAbnormal) refers to wh_nb73.o(.bss) for NbInfo
    protocol.o(i.RunSetSelfTempHumi) refers to memseta.o(.text) for __aeabi_memclr4
    protocol.o(i.RunSetSelfTempHumi) refers to protocol.o(i.ClearData) for ClearData
    protocol.o(i.RunSetSelfTempHumi) refers to protocol.o(i.BuildSendProPak) for BuildSendProPak
    protocol.o(i.RunSetSelfTempHumi) refers to protocol.o(.data) for step
    protocol.o(i.RunSetSelfTempHumi) refers to modbus.o(.bss) for TempHumiData
    protocol.o(i.RunSetSelfTempHumi) refers to wh_nb73.o(.bss) for NbInfo
    protocol.o(i.RunSetSelfTempHumi) refers to protocol.o(i.GetParseProtocolStatus) for GetParseProtocolStatus
    protocol.o(i.RunSetSelfTempHumi) refers to protocol.o(i.SetSelfTempHumiDisable) for SetSelfTempHumiDisable
    protocol.o(i.SendCommuncationStatusDisable) refers to protocol.o(.data) for ProFunctionFlag
    protocol.o(i.SendCommuncationStatusEnable) refers to protocol.o(.data) for ProFunctionFlag
    protocol.o(i.SendCommuncationStatusFun) refers to protocol.o(i.RunSendCommuncationStatus) for RunSendCommuncationStatus
    protocol.o(i.SendCommuncationStatusFun) refers to protocol.o(.data) for ProFunctionFlag
    protocol.o(i.SendMainBoardInfoDisable) refers to protocol.o(.data) for ProFunctionFlag
    protocol.o(i.SendMainBoardInfoEnable) refers to protocol.o(.data) for ProFunctionFlag
    protocol.o(i.SendMainBoardInfoFun) refers to protocol.o(i.RunSendMainBoardInfo) for RunSendMainBoardInfo
    protocol.o(i.SendMainBoardInfoFun) refers to protocol.o(.data) for ProFunctionFlag
    protocol.o(i.SendSignalDisable) refers to protocol.o(.data) for ProFunctionFlag
    protocol.o(i.SendSignalEnable) refers to protocol.o(.data) for ProFunctionFlag
    protocol.o(i.SendSignalFun) refers to protocol.o(i.RunSendSignal) for RunSendSignal
    protocol.o(i.SendSignalFun) refers to protocol.o(.data) for ProFunctionFlag
    protocol.o(i.SetAbnormalDisable) refers to protocol.o(.data) for ProFunctionFlag
    protocol.o(i.SetAbnormalEnable) refers to protocol.o(.data) for ProFunctionFlag
    protocol.o(i.SetAbnormalFun) refers to protocol.o(i.RunSetAbnormal) for RunSetAbnormal
    protocol.o(i.SetAbnormalFun) refers to protocol.o(.data) for ProFunctionFlag
    protocol.o(i.SetSelfTempHumiDisable) refers to protocol.o(.data) for ProFunctionFlag
    protocol.o(i.SetSelfTempHumiEnable) refers to protocol.o(.data) for ProFunctionFlag
    protocol.o(i.SetSelfTempHumiFun) refers to protocol.o(i.RunSetSelfTempHumi) for RunSetSelfTempHumi
    protocol.o(i.SetSelfTempHumiFun) refers to protocol.o(.data) for ProFunctionFlag
    protocol.o(.data) refers to protocol.o(i.GetWlStatusFun) for GetWlStatusFun
    protocol.o(.data) refers to protocol.o(i.GetTempIdFun) for GetTempIdFun
    protocol.o(.data) refers to protocol.o(i.GetHumiIdFun) for GetHumiIdFun
    protocol.o(.data) refers to protocol.o(i.GetTempValFun) for GetTempValFun
    protocol.o(.data) refers to protocol.o(i.GetHumiValFun) for GetHumiValFun
    protocol.o(.data) refers to protocol.o(i.SetSelfTempHumiFun) for SetSelfTempHumiFun
    protocol.o(.data) refers to protocol.o(i.SendSignalFun) for SendSignalFun
    protocol.o(.data) refers to protocol.o(i.SetAbnormalFun) for SetAbnormalFun
    protocol.o(.data) refers to protocol.o(i.SendCommuncationStatusFun) for SendCommuncationStatusFun
    protocol.o(.data) refers to protocol.o(i.SendMainBoardInfoFun) for SendMainBoardInfoFun
    ds18b20.o(i.CheckTempDiff) refers to isl1208.o(i.Isl1208GetTime) for Isl1208GetTime
    ds18b20.o(i.CheckTempDiff) refers to hw_fmc.o(i.StoreInfoAdd) for StoreInfoAdd
    ds18b20.o(i.CheckTempDiff) refers to wh_nb73.o(.bss) for NbInfo
    ds18b20.o(i.CheckTempDiff) refers to ds18b20.o(.data) for CurrStatus
    ds18b20.o(i.CheckTempDiff) refers to init.o(.data) for systemFlag
    ds18b20.o(i.DS18B20GetExtTemp) refers to ds18b20.o(i.DS18B20_Start) for DS18B20_Start
    ds18b20.o(i.DS18B20GetExtTemp) refers to ds18b20.o(i.DS18B20_Rst) for DS18B20_Rst
    ds18b20.o(i.DS18B20GetExtTemp) refers to ds18b20.o(i.DS18B20_Check) for DS18B20_Check
    ds18b20.o(i.DS18B20GetExtTemp) refers to ds18b20.o(i.Ext_DS18B20_Write_Byte) for Ext_DS18B20_Write_Byte
    ds18b20.o(i.DS18B20GetExtTemp) refers to ds18b20.o(i.Ext_DS18B20_Read_Byte) for Ext_DS18B20_Read_Byte
    ds18b20.o(i.DS18B20GetExtTemp) refers to fflti.o(.text) for __aeabi_i2f
    ds18b20.o(i.DS18B20GetExtTemp) refers to f2d.o(.text) for __aeabi_f2d
    ds18b20.o(i.DS18B20GetExtTemp) refers to dmul.o(.text) for __aeabi_dmul
    ds18b20.o(i.DS18B20GetExtTemp) refers to d2f.o(.text) for __aeabi_d2f
    ds18b20.o(i.DS18B20GetExtTemp) refers to ffixui.o(.text) for __aeabi_f2uiz
    ds18b20.o(i.DS18B20GetExtTemp) refers to printfa.o(i.__0printf) for __2printf
    ds18b20.o(i.DS18B20GetExtTemp) refers to isl1208.o(i.Isl1208GetTime) for Isl1208GetTime
    ds18b20.o(i.DS18B20GetExtTemp) refers to hw_fmc.o(i.StoreInfoAdd) for StoreInfoAdd
    ds18b20.o(i.DS18B20GetExtTemp) refers to fadd.o(.text) for __aeabi_fsub
    ds18b20.o(i.DS18B20GetExtTemp) refers to cdrcmple.o(.text) for __aeabi_cdrcmple
    ds18b20.o(i.DS18B20GetExtTemp) refers to ds18b20.o(i.CheckTempDiff) for CheckTempDiff
    ds18b20.o(i.DS18B20GetExtTemp) refers to init.o(.data) for systemFlag
    ds18b20.o(i.DS18B20GetExtTemp) refers to ds18b20.o(.data) for step
    ds18b20.o(i.DS18B20GetExtTemp) refers to wh_nb73.o(.bss) for NbInfo
    ds18b20.o(i.DS18B20GetIntTemp) refers to ds18b20.o(i.DS18B20_Start) for DS18B20_Start
    ds18b20.o(i.DS18B20GetIntTemp) refers to ds18b20.o(i.DS18B20_Rst) for DS18B20_Rst
    ds18b20.o(i.DS18B20GetIntTemp) refers to ds18b20.o(i.DS18B20_Check) for DS18B20_Check
    ds18b20.o(i.DS18B20GetIntTemp) refers to ds18b20.o(i.DS18B20_Write_Byte) for DS18B20_Write_Byte
    ds18b20.o(i.DS18B20GetIntTemp) refers to ds18b20.o(i.DS18B20_Read_Byte) for DS18B20_Read_Byte
    ds18b20.o(i.DS18B20GetIntTemp) refers to fflti.o(.text) for __aeabi_i2f
    ds18b20.o(i.DS18B20GetIntTemp) refers to f2d.o(.text) for __aeabi_f2d
    ds18b20.o(i.DS18B20GetIntTemp) refers to dmul.o(.text) for __aeabi_dmul
    ds18b20.o(i.DS18B20GetIntTemp) refers to d2f.o(.text) for __aeabi_d2f
    ds18b20.o(i.DS18B20GetIntTemp) refers to ffixui.o(.text) for __aeabi_f2uiz
    ds18b20.o(i.DS18B20GetIntTemp) refers to printfa.o(i.__0printf) for __2printf
    ds18b20.o(i.DS18B20GetIntTemp) refers to isl1208.o(i.Isl1208GetTime) for Isl1208GetTime
    ds18b20.o(i.DS18B20GetIntTemp) refers to hw_fmc.o(i.StoreInfoAdd) for StoreInfoAdd
    ds18b20.o(i.DS18B20GetIntTemp) refers to fadd.o(.text) for __aeabi_fsub
    ds18b20.o(i.DS18B20GetIntTemp) refers to cdrcmple.o(.text) for __aeabi_cdrcmple
    ds18b20.o(i.DS18B20GetIntTemp) refers to init.o(.data) for systemFlag
    ds18b20.o(i.DS18B20GetIntTemp) refers to ds18b20.o(.data) for step
    ds18b20.o(i.DS18B20GetIntTemp) refers to wh_nb73.o(.bss) for NbInfo
    ds18b20.o(i.DS18B20_Check) refers to systick.o(i.delay_1us) for delay_1us
    ds18b20.o(i.DS18B20_Check) refers to gd32f10x_gpio.o(i.gpio_input_bit_get) for gpio_input_bit_get
    ds18b20.o(i.DS18B20_Init) refers to gd32f10x_rcu.o(i.rcu_periph_clock_enable) for rcu_periph_clock_enable
    ds18b20.o(i.DS18B20_Init) refers to gd32f10x_gpio.o(i.gpio_init) for gpio_init
    ds18b20.o(i.DS18B20_Init) refers to ds18b20.o(i.DS18B20_Rst) for DS18B20_Rst
    ds18b20.o(i.DS18B20_Init) refers to ds18b20.o(i.DS18B20_Check) for DS18B20_Check
    ds18b20.o(i.DS18B20_Init) refers to printfa.o(i.__0printf) for __2printf
    ds18b20.o(i.DS18B20_Init) refers to init.o(.data) for systemFlag
    ds18b20.o(i.DS18B20_Read_Bit) refers to systick.o(i.delay_1us) for delay_1us
    ds18b20.o(i.DS18B20_Read_Bit) refers to gd32f10x_gpio.o(i.gpio_input_bit_get) for gpio_input_bit_get
    ds18b20.o(i.DS18B20_Read_Byte) refers to ds18b20.o(i.DS18B20_Read_Bit) for DS18B20_Read_Bit
    ds18b20.o(i.DS18B20_Rst) refers to systick.o(i.delay_1us) for delay_1us
    ds18b20.o(i.DS18B20_Start) refers to ds18b20.o(i.DS18B20_Rst) for DS18B20_Rst
    ds18b20.o(i.DS18B20_Start) refers to ds18b20.o(i.DS18B20_Check) for DS18B20_Check
    ds18b20.o(i.DS18B20_Start) refers to ds18b20.o(i.DS18B20_Write_Byte) for DS18B20_Write_Byte
    ds18b20.o(i.DS18B20_Start) refers to ds18b20.o(i.Ext_DS18B20_Write_Byte) for Ext_DS18B20_Write_Byte
    ds18b20.o(i.DS18B20_Write_Byte) refers to systick.o(i.delay_1us) for delay_1us
    ds18b20.o(i.Ext_DS18B20_Read_Bit) refers to systick.o(i.delay_1us) for delay_1us
    ds18b20.o(i.Ext_DS18B20_Read_Bit) refers to gd32f10x_gpio.o(i.gpio_input_bit_get) for gpio_input_bit_get
    ds18b20.o(i.Ext_DS18B20_Read_Byte) refers to ds18b20.o(i.Ext_DS18B20_Read_Bit) for Ext_DS18B20_Read_Bit
    ds18b20.o(i.Ext_DS18B20_Write_Byte) refers to systick.o(i.delay_1us) for delay_1us
    isl1208.o(i.GetRtcTime) refers to isl1208.o(i.Isl1208GetTime) for Isl1208GetTime
    isl1208.o(i.GetRtcTime) refers to hw_fmc.o(i.StoreInfoAdd) for StoreInfoAdd
    isl1208.o(i.GetRtcTime) refers to printfa.o(i.__0printf) for __2printf
    isl1208.o(i.GetRtcTime) refers to isl1208.o(.data) for count
    isl1208.o(i.GetRtcTime) refers to wh_nb73.o(.bss) for NbInfo
    isl1208.o(i.GetRtcTime) refers to init.o(.data) for systemFlag
    isl1208.o(i.GetRtcTime) refers to isl1208.o(.bss) for TimeStr
    isl1208.o(i.Isl1208GetTime) refers to isl1208.o(i.Isl1208Read) for Isl1208Read
    isl1208.o(i.Isl1208GetTime) refers to isl1208.o(i.BcdToByte) for BcdToByte
    isl1208.o(i.Isl1208GetTime) refers to isl1208.o(i.UTC_to_Unix) for UTC_to_Unix
    isl1208.o(i.Isl1208GetTime) refers to isl1208.o(.bss) for TimeStr
    isl1208.o(i.Isl1208GetTime) refers to wh_nb73.o(.bss) for NbInfo
    isl1208.o(i.Isl1208Init) refers to isl1208.o(i.Isl1208Read) for Isl1208Read
    isl1208.o(i.Isl1208Init) refers to isl1208.o(i.Isl1208Write) for Isl1208Write
    isl1208.o(i.Isl1208Init) refers to isl1208.o(i.Isl1208GetTime) for Isl1208GetTime
    isl1208.o(i.Isl1208Init) refers to isl1208.o(i.RtcSetTime) for RtcSetTime
    isl1208.o(i.Isl1208Init) refers to isl1208.o(.bss) for TimeStr
    isl1208.o(i.Isl1208Read) refers to gd32f10x_i2c.o(i.i2c_start_on_bus) for i2c_start_on_bus
    isl1208.o(i.Isl1208Read) refers to gd32f10x_i2c.o(i.i2c_flag_get) for i2c_flag_get
    isl1208.o(i.Isl1208Read) refers to gd32f10x_i2c.o(i.i2c_master_addressing) for i2c_master_addressing
    isl1208.o(i.Isl1208Read) refers to gd32f10x_i2c.o(i.i2c_flag_clear) for i2c_flag_clear
    isl1208.o(i.Isl1208Read) refers to gd32f10x_i2c.o(i.i2c_data_transmit) for i2c_data_transmit
    isl1208.o(i.Isl1208Read) refers to gd32f10x_i2c.o(i.i2c_ack_config) for i2c_ack_config
    isl1208.o(i.Isl1208Read) refers to gd32f10x_i2c.o(i.i2c_data_receive) for i2c_data_receive
    isl1208.o(i.Isl1208Read) refers to gd32f10x_i2c.o(i.i2c_stop_on_bus) for i2c_stop_on_bus
    isl1208.o(i.Isl1208Write) refers to gd32f10x_i2c.o(i.i2c_start_on_bus) for i2c_start_on_bus
    isl1208.o(i.Isl1208Write) refers to gd32f10x_i2c.o(i.i2c_flag_get) for i2c_flag_get
    isl1208.o(i.Isl1208Write) refers to gd32f10x_i2c.o(i.i2c_master_addressing) for i2c_master_addressing
    isl1208.o(i.Isl1208Write) refers to gd32f10x_i2c.o(i.i2c_flag_clear) for i2c_flag_clear
    isl1208.o(i.Isl1208Write) refers to gd32f10x_i2c.o(i.i2c_data_transmit) for i2c_data_transmit
    isl1208.o(i.Isl1208Write) refers to gd32f10x_i2c.o(i.i2c_stop_on_bus) for i2c_stop_on_bus
    isl1208.o(i.RtcSetTime) refers to isl1208.o(i.ByteToBcd) for ByteToBcd
    isl1208.o(i.RtcSetTime) refers to isl1208.o(i.Isl1208Write) for Isl1208Write
    isl1208.o(i.UTC_to_Unix) refers to mktime.o(.text) for mktime
    isl1208.o(i.Unix_to_UTC) refers to localtime_w.o(.text) for localtime
    isl1208.o(i.Unix_to_UTC) refers to printfa.o(i.__0printf) for __2printf
    isl1208.o(i.Unix_to_UTC) refers to init.o(.data) for systemFlag
    wh_nb73.o(i.AsynCheck) refers to hw_uart.o(i.NbCheck) for NbCheck
    wh_nb73.o(i.AsynCheck) refers to hw_uart.o(i.NbGetData) for NbGetData
    wh_nb73.o(i.AsynCheck) refers to hw_uart.o(i.HostUartSendBuf) for HostUartSendBuf
    wh_nb73.o(i.AsynCheck) refers to strstr.o(.text) for strstr
    wh_nb73.o(i.AsynCheck) refers to wh_nb73.o(i.RevDataRead) for RevDataRead
    wh_nb73.o(i.AsynCheck) refers to wh_nb73.o(.bss) for NbInfo
    wh_nb73.o(i.AsynCheck) refers to wh_nb73.o(.data) for ResDataIndex
    wh_nb73.o(i.AsynCheck) refers to init.o(.data) for systemFlag
    wh_nb73.o(i.CCID_TO_BCD) refers to wh_nb73.o(.bss) for NbInfo
    wh_nb73.o(i.CheckNet) refers to wh_nb73.o(i.NbResetEnable) for NbResetEnable
    wh_nb73.o(i.CheckNet) refers to wh_nb73.o(i.GetAttchEnable) for GetAttchEnable
    wh_nb73.o(i.CheckNet) refers to wh_nb73.o(i.GetRssiEnable) for GetRssiEnable
    wh_nb73.o(i.CheckNet) refers to wh_nb73.o(.bss) for NbInfo
    wh_nb73.o(i.CheckNet) refers to wh_nb73.o(.data) for count
    wh_nb73.o(i.ClearRevBuf) refers to memseta.o(.text) for __aeabi_memclr4
    wh_nb73.o(i.ClearRevBuf) refers to wh_nb73.o(.bss) for ResDataBuf
    wh_nb73.o(i.ClearRevBuf) refers to wh_nb73.o(.data) for ResDataIndex
    wh_nb73.o(i.ConfResCheck) refers to wh_nb73.o(i.SendDataEnable) for SendDataEnable
    wh_nb73.o(i.ConfResCheck) refers to wh_nb73.o(.bss) for NbInfo
    wh_nb73.o(i.ConnectServer) refers to memcpya.o(.text) for __aeabi_memcpy4
    wh_nb73.o(i.ConnectServer) refers to wh_nb73.o(i.ClearRevBuf) for ClearRevBuf
    wh_nb73.o(i.ConnectServer) refers to strlen.o(.text) for strlen
    wh_nb73.o(i.ConnectServer) refers to hw_uart.o(i.NbUartSendBuf) for NbUartSendBuf
    wh_nb73.o(i.CreateSocket) refers to memcpya.o(.text) for __aeabi_memcpy4
    wh_nb73.o(i.CreateSocket) refers to wh_nb73.o(i.ClearRevBuf) for ClearRevBuf
    wh_nb73.o(i.CreateSocket) refers to strlen.o(.text) for strlen
    wh_nb73.o(i.CreateSocket) refers to hw_uart.o(i.NbUartSendBuf) for NbUartSendBuf
    wh_nb73.o(i.CreateSocketDisable) refers to wh_nb73.o(.bss) for NbInfo
    wh_nb73.o(i.CreateSocketEnable) refers to wh_nb73.o(.bss) for NbInfo
    wh_nb73.o(i.CreateSocketFunc) refers to wh_nb73.o(i.RunCreateSocket) for RunCreateSocket
    wh_nb73.o(i.CreateSocketFunc) refers to wh_nb73.o(.bss) for NbInfo
    wh_nb73.o(i.DebugNB) refers to hw_uart.o(i.NbCheck) for NbCheck
    wh_nb73.o(i.DebugNB) refers to hw_uart.o(i.NbGetData) for NbGetData
    wh_nb73.o(i.DebugNB) refers to hw_uart.o(i.HostUartSendBuf) for HostUartSendBuf
    wh_nb73.o(i.DebugNB) refers to wh_nb73.o(.data) for count
    wh_nb73.o(i.DebugNB) refers to wh_nb73.o(.bss) for buffer
    wh_nb73.o(i.DebugNB) refers to init.o(.data) for systemFlag
    wh_nb73.o(i.GetAttach) refers to wh_nb73.o(i.ClearRevBuf) for ClearRevBuf
    wh_nb73.o(i.GetAttach) refers to strlen.o(.text) for strlen
    wh_nb73.o(i.GetAttach) refers to hw_uart.o(i.NbUartSendBuf) for NbUartSendBuf
    wh_nb73.o(i.GetAttachDisable) refers to wh_nb73.o(.bss) for NbInfo
    wh_nb73.o(i.GetAttachFunc) refers to wh_nb73.o(i.RunGetAttach) for RunGetAttach
    wh_nb73.o(i.GetAttachFunc) refers to wh_nb73.o(.bss) for NbInfo
    wh_nb73.o(i.GetAttchEnable) refers to wh_nb73.o(.bss) for NbInfo
    wh_nb73.o(i.GetCCID) refers to wh_nb73.o(i.ClearRevBuf) for ClearRevBuf
    wh_nb73.o(i.GetCCID) refers to strlen.o(.text) for strlen
    wh_nb73.o(i.GetCCID) refers to hw_uart.o(i.NbUartSendBuf) for NbUartSendBuf
    wh_nb73.o(i.GetCCIDDisable) refers to wh_nb73.o(.bss) for NbInfo
    wh_nb73.o(i.GetCcidEnable) refers to wh_nb73.o(.bss) for NbInfo
    wh_nb73.o(i.GetCcidFunc) refers to wh_nb73.o(i.RunGetCCID) for RunGetCCID
    wh_nb73.o(i.GetCcidFunc) refers to wh_nb73.o(.bss) for NbInfo
    wh_nb73.o(i.GetImei) refers to wh_nb73.o(i.ClearRevBuf) for ClearRevBuf
    wh_nb73.o(i.GetImei) refers to strlen.o(.text) for strlen
    wh_nb73.o(i.GetImei) refers to hw_uart.o(i.NbUartSendBuf) for NbUartSendBuf
    wh_nb73.o(i.GetImeiDisable) refers to wh_nb73.o(.bss) for NbInfo
    wh_nb73.o(i.GetImeiEnable) refers to wh_nb73.o(.bss) for NbInfo
    wh_nb73.o(i.GetImeiFunc) refers to wh_nb73.o(i.RunGetImei) for RunGetImei
    wh_nb73.o(i.GetImeiFunc) refers to wh_nb73.o(.bss) for NbInfo
    wh_nb73.o(i.GetIp) refers to wh_nb73.o(i.ClearRevBuf) for ClearRevBuf
    wh_nb73.o(i.GetIp) refers to strlen.o(.text) for strlen
    wh_nb73.o(i.GetIp) refers to hw_uart.o(i.NbUartSendBuf) for NbUartSendBuf
    wh_nb73.o(i.GetIpDisable) refers to wh_nb73.o(.bss) for NbInfo
    wh_nb73.o(i.GetIpEnable) refers to wh_nb73.o(.bss) for NbInfo
    wh_nb73.o(i.GetIpFunc) refers to wh_nb73.o(i.RunGetIp) for RunGetIp
    wh_nb73.o(i.GetIpFunc) refers to wh_nb73.o(.bss) for NbInfo
    wh_nb73.o(i.GetPCI) refers to wh_nb73.o(i.ClearRevBuf) for ClearRevBuf
    wh_nb73.o(i.GetPCI) refers to strlen.o(.text) for strlen
    wh_nb73.o(i.GetPCI) refers to hw_uart.o(i.NbUartSendBuf) for NbUartSendBuf
    wh_nb73.o(i.GetPciDisable) refers to wh_nb73.o(.bss) for NbInfo
    wh_nb73.o(i.GetPciEnable) refers to wh_nb73.o(.bss) for NbInfo
    wh_nb73.o(i.GetPciFunc) refers to wh_nb73.o(i.RunGetPCI) for RunGetPCI
    wh_nb73.o(i.GetPciFunc) refers to wh_nb73.o(.bss) for NbInfo
    wh_nb73.o(i.GetRSSI) refers to wh_nb73.o(i.ClearRevBuf) for ClearRevBuf
    wh_nb73.o(i.GetRSSI) refers to strlen.o(.text) for strlen
    wh_nb73.o(i.GetRSSI) refers to hw_uart.o(i.NbUartSendBuf) for NbUartSendBuf
    wh_nb73.o(i.GetRssiDisable) refers to wh_nb73.o(.bss) for NbInfo
    wh_nb73.o(i.GetRssiEnable) refers to wh_nb73.o(.bss) for NbInfo
    wh_nb73.o(i.GetRssiFunc) refers to wh_nb73.o(i.RunGetRSSI) for RunGetRSSI
    wh_nb73.o(i.GetRssiFunc) refers to wh_nb73.o(.bss) for NbInfo
    wh_nb73.o(i.IMEI_TO_BCD) refers to wh_nb73.o(.bss) for NbInfo
    wh_nb73.o(i.NB_Control) refers to wh_nb73.o(i.CheckNet) for CheckNet
    wh_nb73.o(i.NB_Control) refers to wh_nb73.o(i.SendRegCheck) for SendRegCheck
    wh_nb73.o(i.NB_Control) refers to wh_nb73.o(i.SendDataCheck) for SendDataCheck
    wh_nb73.o(i.NB_Control) refers to wh_nb73.o(i.ConfResCheck) for ConfResCheck
    wh_nb73.o(i.NB_Control) refers to wh_nb73.o(i.NbApplication) for NbApplication
    wh_nb73.o(i.NB_Control) refers to init.o(.data) for systemFlag
    wh_nb73.o(i.NB_Control) refers to wh_nb73.o(.bss) for NbInfo
    wh_nb73.o(i.NbApplication) refers to wh_nb73.o(i.AsynCheck) for AsynCheck
    wh_nb73.o(i.NbApplication) refers to wh_nb73.o(.bss) for NbInfo
    wh_nb73.o(i.NbApplication) refers to wh_nb73.o(.data) for AT_FuncTable
    wh_nb73.o(i.NbParse) refers to strstr.o(.text) for strstr
    wh_nb73.o(i.NbParse) refers to wh_nb73.o(i.RevDataRead) for RevDataRead
    wh_nb73.o(i.NbParse) refers to wh_nb73.o(.bss) for ResDataBuf
    wh_nb73.o(i.NbReset) refers to wh_nb73.o(i.ResBuffAdd) for ResBuffAdd
    wh_nb73.o(i.NbReset) refers to strstr.o(.text) for strstr
    wh_nb73.o(i.NbReset) refers to wh_nb73.o(i.NbResetDisable) for NbResetDisable
    wh_nb73.o(i.NbReset) refers to wh_nb73.o(i.GetImeiEnable) for GetImeiEnable
    wh_nb73.o(i.NbReset) refers to wh_nb73.o(i.GetCcidEnable) for GetCcidEnable
    wh_nb73.o(i.NbReset) refers to wh_nb73.o(.data) for count
    wh_nb73.o(i.NbReset) refers to wh_nb73.o(.bss) for NbInfo
    wh_nb73.o(i.NbResetDisable) refers to wh_nb73.o(.bss) for NbInfo
    wh_nb73.o(i.NbResetEnable) refers to wh_nb73.o(.bss) for NbInfo
    wh_nb73.o(i.NbResetFunc) refers to wh_nb73.o(i.NbReset) for NbReset
    wh_nb73.o(i.NbResetFunc) refers to wh_nb73.o(.bss) for NbInfo
    wh_nb73.o(i.ParseConnectServer) refers to wh_nb73.o(i.ResBuffAdd) for ResBuffAdd
    wh_nb73.o(i.ParseConnectServer) refers to strstr.o(.text) for strstr
    wh_nb73.o(i.ParseConnectServer) refers to wh_nb73.o(i.CreateSocketDisable) for CreateSocketDisable
    wh_nb73.o(i.ParseConnectServer) refers to wh_nb73.o(.data) for count
    wh_nb73.o(i.ParseConnectServer) refers to wh_nb73.o(.bss) for ResDataBuf
    wh_nb73.o(i.ParseCreateSocket) refers to wh_nb73.o(i.ResBuffAdd) for ResBuffAdd
    wh_nb73.o(i.ParseCreateSocket) refers to strstr.o(.text) for strstr
    wh_nb73.o(i.ParseCreateSocket) refers to wh_nb73.o(.data) for count
    wh_nb73.o(i.ParseCreateSocket) refers to wh_nb73.o(.bss) for ResDataBuf
    wh_nb73.o(i.ParseGetAttach) refers to wh_nb73.o(i.ResBuffAdd) for ResBuffAdd
    wh_nb73.o(i.ParseGetAttach) refers to wh_nb73.o(i.NbParse) for NbParse
    wh_nb73.o(i.ParseGetAttach) refers to wh_nb73.o(i.CreateSocketEnable) for CreateSocketEnable
    wh_nb73.o(i.ParseGetAttach) refers to wh_nb73.o(i.GetAttachDisable) for GetAttachDisable
    wh_nb73.o(i.ParseGetAttach) refers to wh_nb73.o(.data) for count
    wh_nb73.o(i.ParseGetAttach) refers to wh_nb73.o(.bss) for ResDataBuf
    wh_nb73.o(i.ParseGetCCID) refers to wh_nb73.o(i.ResBuffAdd) for ResBuffAdd
    wh_nb73.o(i.ParseGetCCID) refers to strstr.o(.text) for strstr
    wh_nb73.o(i.ParseGetCCID) refers to memcpya.o(.text) for __aeabi_memcpy
    wh_nb73.o(i.ParseGetCCID) refers to wh_nb73.o(i.CCID_TO_BCD) for CCID_TO_BCD
    wh_nb73.o(i.ParseGetCCID) refers to wh_nb73.o(i.GetCCIDDisable) for GetCCIDDisable
    wh_nb73.o(i.ParseGetCCID) refers to wh_nb73.o(.data) for count
    wh_nb73.o(i.ParseGetCCID) refers to wh_nb73.o(.bss) for ResDataBuf
    wh_nb73.o(i.ParseGetImei) refers to wh_nb73.o(i.ResBuffAdd) for ResBuffAdd
    wh_nb73.o(i.ParseGetImei) refers to strstr.o(.text) for strstr
    wh_nb73.o(i.ParseGetImei) refers to memcpya.o(.text) for __aeabi_memcpy
    wh_nb73.o(i.ParseGetImei) refers to wh_nb73.o(i.IMEI_TO_BCD) for IMEI_TO_BCD
    wh_nb73.o(i.ParseGetImei) refers to wh_nb73.o(i.GetImeiDisable) for GetImeiDisable
    wh_nb73.o(i.ParseGetImei) refers to wh_nb73.o(.data) for count
    wh_nb73.o(i.ParseGetImei) refers to wh_nb73.o(.bss) for ResDataBuf
    wh_nb73.o(i.ParseGetIp) refers to wh_nb73.o(i.ResBuffAdd) for ResBuffAdd
    wh_nb73.o(i.ParseGetIp) refers to strstr.o(.text) for strstr
    wh_nb73.o(i.ParseGetIp) refers to wh_nb73.o(i.GetIpDisable) for GetIpDisable
    wh_nb73.o(i.ParseGetIp) refers to wh_nb73.o(.data) for count
    wh_nb73.o(i.ParseGetIp) refers to wh_nb73.o(.bss) for ResDataBuf
    wh_nb73.o(i.ParseGetPCI) refers to wh_nb73.o(i.ResBuffAdd) for ResBuffAdd
    wh_nb73.o(i.ParseGetPCI) refers to strstr.o(.text) for strstr
    wh_nb73.o(i.ParseGetPCI) refers to strlen.o(.text) for strlen
    wh_nb73.o(i.ParseGetPCI) refers to memcpya.o(.text) for __aeabi_memcpy
    wh_nb73.o(i.ParseGetPCI) refers to wh_nb73.o(i.GetPciDisable) for GetPciDisable
    wh_nb73.o(i.ParseGetPCI) refers to wh_nb73.o(.data) for count
    wh_nb73.o(i.ParseGetPCI) refers to wh_nb73.o(.bss) for ResDataBuf
    wh_nb73.o(i.ParseGetRSSI) refers to wh_nb73.o(i.ResBuffAdd) for ResBuffAdd
    wh_nb73.o(i.ParseGetRSSI) refers to wh_nb73.o(i.NbParse) for NbParse
    wh_nb73.o(i.ParseGetRSSI) refers to wh_nb73.o(i.GetPciEnable) for GetPciEnable
    wh_nb73.o(i.ParseGetRSSI) refers to wh_nb73.o(i.GetIpEnable) for GetIpEnable
    wh_nb73.o(i.ParseGetRSSI) refers to wh_nb73.o(i.GetRssiDisable) for GetRssiDisable
    wh_nb73.o(i.ParseGetRSSI) refers to wh_nb73.o(.data) for count
    wh_nb73.o(i.ParseGetRSSI) refers to wh_nb73.o(.bss) for ResDataBuf
    wh_nb73.o(i.ParseReadData) refers to wh_nb73.o(i.ResBuffAdd) for ResBuffAdd
    wh_nb73.o(i.ParseReadData) refers to wh_nb73.o(i.NbParse) for NbParse
    wh_nb73.o(i.ParseReadData) refers to wh_nb73.o(i.ReadData2Byte) for ReadData2Byte
    wh_nb73.o(i.ParseReadData) refers to wh_nb73.o(i.ReadDataDisable) for ReadDataDisable
    wh_nb73.o(i.ParseReadData) refers to wh_nb73.o(.data) for count
    wh_nb73.o(i.ParseReadData) refers to wh_nb73.o(.bss) for ResDataBuf
    wh_nb73.o(i.ParseSendData) refers to wh_nb73.o(i.ResBuffAdd) for ResBuffAdd
    wh_nb73.o(i.ParseSendData) refers to wh_nb73.o(i.NbParse) for NbParse
    wh_nb73.o(i.ParseSendData) refers to wh_nb73.o(i.SendDataDisable) for SendDataDisable
    wh_nb73.o(i.ParseSendData) refers to wh_nb73.o(.data) for count
    wh_nb73.o(i.ReadData) refers to memcpya.o(.text) for __aeabi_memcpy4
    wh_nb73.o(i.ReadData) refers to wh_nb73.o(i.ClearRevBuf) for ClearRevBuf
    wh_nb73.o(i.ReadData) refers to hw_uart.o(i.NbUartSendBuf) for NbUartSendBuf
    wh_nb73.o(i.ReadData) refers to wh_nb73.o(.bss) for NbInfo
    wh_nb73.o(i.ReadData2Byte) refers to wh_nb73.o(i.GetCheckSum) for GetCheckSum
    wh_nb73.o(i.ReadData2Byte) refers to isl1208.o(i.Unix_to_UTC) for Unix_to_UTC
    wh_nb73.o(i.ReadData2Byte) refers to isl1208.o(i.RtcSetTime) for RtcSetTime
    wh_nb73.o(i.ReadData2Byte) refers to isl1208.o(i.UTC_to_Unix) for UTC_to_Unix
    wh_nb73.o(i.ReadData2Byte) refers to hw_fmc.o(i.StoreConfUpdate) for StoreConfUpdate
    wh_nb73.o(i.ReadData2Byte) refers to printfa.o(i.__0printf) for __2printf
    wh_nb73.o(i.ReadData2Byte) refers to hw_fmc.o(i.CheckCRC) for CheckCRC
    wh_nb73.o(i.ReadData2Byte) refers to hw_fmc.o(i.WriteStoreInfo) for WriteStoreInfo
    wh_nb73.o(i.ReadData2Byte) refers to init.o(i.BackUpClearOne) for BackUpClearOne
    wh_nb73.o(i.ReadData2Byte) refers to wh_nb73.o(.data) for RevBufIndex
    wh_nb73.o(i.ReadData2Byte) refers to wh_nb73.o(.bss) for RevBuf
    wh_nb73.o(i.ReadData2Byte) refers to isl1208.o(.bss) for TimeStr
    wh_nb73.o(i.ReadData2Byte) refers to init.o(.data) for systemFlag
    wh_nb73.o(i.ReadData2Byte) refers to wh_nb73.o(.conststring) for .conststring
    wh_nb73.o(i.ReadData2Byte) refers to init.o(.bss) for StoreInfo
    wh_nb73.o(i.ReadDataDisable) refers to wh_nb73.o(.bss) for NbInfo
    wh_nb73.o(i.ReadDataEnable) refers to wh_nb73.o(.bss) for NbInfo
    wh_nb73.o(i.ReadDataFunc) refers to wh_nb73.o(i.RunReadData) for RunReadData
    wh_nb73.o(i.ReadDataFunc) refers to wh_nb73.o(.bss) for NbInfo
    wh_nb73.o(i.ResBuffAdd) refers to hw_uart.o(i.NbCheck) for NbCheck
    wh_nb73.o(i.ResBuffAdd) refers to hw_uart.o(i.NbGetData) for NbGetData
    wh_nb73.o(i.ResBuffAdd) refers to hw_uart.o(i.HostUartSendBuf) for HostUartSendBuf
    wh_nb73.o(i.ResBuffAdd) refers to wh_nb73.o(.data) for ResDataIndex
    wh_nb73.o(i.ResBuffAdd) refers to wh_nb73.o(.bss) for ResDataBuf
    wh_nb73.o(i.ResBuffAdd) refers to init.o(.data) for systemFlag
    wh_nb73.o(i.RevDataRead) refers to strstr.o(.text) for strstr
    wh_nb73.o(i.RevDataRead) refers to strlen.o(.text) for strlen
    wh_nb73.o(i.RevDataRead) refers to wh_nb73.o(i.ReadData2Byte) for ReadData2Byte
    wh_nb73.o(i.RevDataRead) refers to wh_nb73.o(.bss) for ResDataBuf
    wh_nb73.o(i.RevDataRead) refers to wh_nb73.o(.data) for RevBufIndex
    wh_nb73.o(i.RunCreateSocket) refers to wh_nb73.o(i.CreateSocket) for CreateSocket
    wh_nb73.o(i.RunCreateSocket) refers to wh_nb73.o(i.ParseCreateSocket) for ParseCreateSocket
    wh_nb73.o(i.RunCreateSocket) refers to wh_nb73.o(i.ConnectServer) for ConnectServer
    wh_nb73.o(i.RunCreateSocket) refers to wh_nb73.o(i.ParseConnectServer) for ParseConnectServer
    wh_nb73.o(i.RunCreateSocket) refers to wh_nb73.o(.data) for step
    wh_nb73.o(i.RunCreateSocket) refers to wh_nb73.o(.bss) for NbInfo
    wh_nb73.o(i.RunGetAttach) refers to wh_nb73.o(i.GetAttach) for GetAttach
    wh_nb73.o(i.RunGetAttach) refers to wh_nb73.o(i.ParseGetAttach) for ParseGetAttach
    wh_nb73.o(i.RunGetAttach) refers to wh_nb73.o(i.GetAttachDisable) for GetAttachDisable
    wh_nb73.o(i.RunGetAttach) refers to wh_nb73.o(.data) for step
    wh_nb73.o(i.RunGetAttach) refers to wh_nb73.o(.bss) for NbInfo
    wh_nb73.o(i.RunGetCCID) refers to wh_nb73.o(i.GetCCID) for GetCCID
    wh_nb73.o(i.RunGetCCID) refers to wh_nb73.o(i.ParseGetCCID) for ParseGetCCID
    wh_nb73.o(i.RunGetCCID) refers to wh_nb73.o(.data) for step
    wh_nb73.o(i.RunGetCCID) refers to wh_nb73.o(.bss) for NbInfo
    wh_nb73.o(i.RunGetImei) refers to wh_nb73.o(i.GetImei) for GetImei
    wh_nb73.o(i.RunGetImei) refers to wh_nb73.o(i.ParseGetImei) for ParseGetImei
    wh_nb73.o(i.RunGetImei) refers to wh_nb73.o(i.GetImeiDisable) for GetImeiDisable
    wh_nb73.o(i.RunGetImei) refers to wh_nb73.o(i.NbResetEnable) for NbResetEnable
    wh_nb73.o(i.RunGetImei) refers to wh_nb73.o(.data) for step
    wh_nb73.o(i.RunGetImei) refers to wh_nb73.o(.bss) for NbInfo
    wh_nb73.o(i.RunGetIp) refers to wh_nb73.o(i.GetIp) for GetIp
    wh_nb73.o(i.RunGetIp) refers to wh_nb73.o(i.ParseGetIp) for ParseGetIp
    wh_nb73.o(i.RunGetIp) refers to wh_nb73.o(.data) for step
    wh_nb73.o(i.RunGetIp) refers to wh_nb73.o(.bss) for NbInfo
    wh_nb73.o(i.RunGetPCI) refers to wh_nb73.o(i.GetPCI) for GetPCI
    wh_nb73.o(i.RunGetPCI) refers to wh_nb73.o(i.ParseGetPCI) for ParseGetPCI
    wh_nb73.o(i.RunGetPCI) refers to wh_nb73.o(.data) for step
    wh_nb73.o(i.RunGetPCI) refers to wh_nb73.o(.bss) for NbInfo
    wh_nb73.o(i.RunGetRSSI) refers to wh_nb73.o(i.GetRSSI) for GetRSSI
    wh_nb73.o(i.RunGetRSSI) refers to wh_nb73.o(i.ParseGetRSSI) for ParseGetRSSI
    wh_nb73.o(i.RunGetRSSI) refers to wh_nb73.o(i.GetRssiDisable) for GetRssiDisable
    wh_nb73.o(i.RunGetRSSI) refers to wh_nb73.o(.data) for step
    wh_nb73.o(i.RunGetRSSI) refers to wh_nb73.o(.bss) for NbInfo
    wh_nb73.o(i.RunReadData) refers to wh_nb73.o(i.ReadData) for ReadData
    wh_nb73.o(i.RunReadData) refers to wh_nb73.o(i.ParseReadData) for ParseReadData
    wh_nb73.o(i.RunReadData) refers to wh_nb73.o(i.ReadDataDisable) for ReadDataDisable
    wh_nb73.o(i.RunReadData) refers to wh_nb73.o(i.NbResetEnable) for NbResetEnable
    wh_nb73.o(i.RunReadData) refers to wh_nb73.o(.data) for step
    wh_nb73.o(i.RunReadData) refers to wh_nb73.o(.bss) for NbInfo
    wh_nb73.o(i.RunSendData) refers to wh_nb73.o(i.SenData) for SenData
    wh_nb73.o(i.RunSendData) refers to wh_nb73.o(i.ParseSendData) for ParseSendData
    wh_nb73.o(i.RunSendData) refers to wh_nb73.o(i.SendDataDisable) for SendDataDisable
    wh_nb73.o(i.RunSendData) refers to wh_nb73.o(i.NbResetEnable) for NbResetEnable
    wh_nb73.o(i.RunSendData) refers to wh_nb73.o(.data) for step
    wh_nb73.o(i.RunSendData) refers to wh_nb73.o(.bss) for NbInfo
    wh_nb73.o(i.SenData) refers to wh_nb73.o(i.SnedBufBuild) for SnedBufBuild
    wh_nb73.o(i.SenData) refers to wh_nb73.o(i.ClearRevBuf) for ClearRevBuf
    wh_nb73.o(i.SenData) refers to hw_uart.o(i.NbUartSendBuf) for NbUartSendBuf
    wh_nb73.o(i.SenData) refers to wh_nb73.o(.data) for SendBufIndex
    wh_nb73.o(i.SendDataCheck) refers to isl1208.o(i.Isl1208GetTime) for Isl1208GetTime
    wh_nb73.o(i.SendDataCheck) refers to hw_fmc.o(i.StoreInfoAdd) for StoreInfoAdd
    wh_nb73.o(i.SendDataCheck) refers to printfa.o(i.__0printf) for __2printf
    wh_nb73.o(i.SendDataCheck) refers to wh_nb73.o(i.SignalCheckLed) for SignalCheckLed
    wh_nb73.o(i.SendDataCheck) refers to wh_nb73.o(i.SendDataEnable) for SendDataEnable
    wh_nb73.o(i.SendDataCheck) refers to init.o(i.BackUpAdd) for BackUpAdd
    wh_nb73.o(i.SendDataCheck) refers to hw_fmc.o(i.CheckCRC) for CheckCRC
    wh_nb73.o(i.SendDataCheck) refers to hw_fmc.o(i.WriteStoreInfo) for WriteStoreInfo
    wh_nb73.o(i.SendDataCheck) refers to wh_nb73.o(.bss) for NbInfo
    wh_nb73.o(i.SendDataCheck) refers to init.o(.data) for systemFlag
    wh_nb73.o(i.SendDataCheck) refers to wh_nb73.o(.data) for RegTry
    wh_nb73.o(i.SendDataCheck) refers to init.o(.bss) for BackUpInfo
    wh_nb73.o(i.SendDataDisable) refers to wh_nb73.o(.bss) for NbInfo
    wh_nb73.o(i.SendDataEnable) refers to wh_nb73.o(.bss) for NbInfo
    wh_nb73.o(i.SendDataFunc) refers to wh_nb73.o(i.RunSendData) for RunSendData
    wh_nb73.o(i.SendDataFunc) refers to wh_nb73.o(.bss) for NbInfo
    wh_nb73.o(i.SendRegCheck) refers to wh_nb73.o(i.SendDataEnable) for SendDataEnable
    wh_nb73.o(i.SendRegCheck) refers to wh_nb73.o(.bss) for NbInfo
    wh_nb73.o(i.SendRegCheck) refers to wh_nb73.o(.data) for RegTry
    wh_nb73.o(i.SnedBufBuild) refers to memseta.o(.text) for __aeabi_memclr4
    wh_nb73.o(i.SnedBufBuild) refers to isl1208.o(i.Isl1208GetTime) for Isl1208GetTime
    wh_nb73.o(i.SnedBufBuild) refers to wh_nb73.o(i.GetCheckSum) for GetCheckSum
    wh_nb73.o(i.SnedBufBuild) refers to wh_nb73.o(i.Byte2HexString) for Byte2HexString
    wh_nb73.o(i.SnedBufBuild) refers to wh_nb73.o(.bss) for NbInfo
    wh_nb73.o(i.SnedBufBuild) refers to wh_nb73.o(.data) for sendBuf
    wh_nb73.o(i.SnedBufBuild) refers to init.o(.data) for systemFlag
    wh_nb73.o(i.SnedBufBuild) refers to init.o(.bss) for BackUpInfo
    wh_nb73.o(.data) refers to wh_nb73.o(i.NbResetFunc) for NbResetFunc
    wh_nb73.o(.data) refers to wh_nb73.o(i.GetImeiFunc) for GetImeiFunc
    wh_nb73.o(.data) refers to wh_nb73.o(i.GetCcidFunc) for GetCcidFunc
    wh_nb73.o(.data) refers to wh_nb73.o(i.CreateSocketFunc) for CreateSocketFunc
    wh_nb73.o(.data) refers to wh_nb73.o(i.GetPciFunc) for GetPciFunc
    wh_nb73.o(.data) refers to wh_nb73.o(i.GetAttachFunc) for GetAttachFunc
    wh_nb73.o(.data) refers to wh_nb73.o(i.GetRssiFunc) for GetRssiFunc
    wh_nb73.o(.data) refers to wh_nb73.o(i.SendDataFunc) for SendDataFunc
    wh_nb73.o(.data) refers to wh_nb73.o(i.ReadDataFunc) for ReadDataFunc
    wh_nb73.o(.data) refers to wh_nb73.o(i.GetIpFunc) for GetIpFunc
    mt29f2g01abagdwb.o(i.DisableWp) refers to gd32f10x_gpio.o(i.gpio_bit_reset) for gpio_bit_reset
    mt29f2g01abagdwb.o(i.DisableWp) refers to hw_spi.o(i.spi_flash_send_byte) for spi_flash_send_byte
    mt29f2g01abagdwb.o(i.DisableWp) refers to gd32f10x_gpio.o(i.gpio_bit_set) for gpio_bit_set
    mt29f2g01abagdwb.o(i.EarseBlock) refers to mt29f2g01abagdwb.o(i.WriteEnable) for WriteEnable
    mt29f2g01abagdwb.o(i.EarseBlock) refers to gd32f10x_gpio.o(i.gpio_bit_reset) for gpio_bit_reset
    mt29f2g01abagdwb.o(i.EarseBlock) refers to hw_spi.o(i.spi_flash_send_byte) for spi_flash_send_byte
    mt29f2g01abagdwb.o(i.EarseBlock) refers to gd32f10x_gpio.o(i.gpio_bit_set) for gpio_bit_set
    mt29f2g01abagdwb.o(i.EarseBlock) refers to mt29f2g01abagdwb.o(i.WaitForActionEnd) for WaitForActionEnd
    mt29f2g01abagdwb.o(i.FlashFunTest) refers to memseta.o(.text) for __aeabi_memclr4
    mt29f2g01abagdwb.o(i.FlashFunTest) refers to mt29f2g01abagdwb.o(i.WritePageLoad) for WritePageLoad
    mt29f2g01abagdwb.o(i.FlashFunTest) refers to mt29f2g01abagdwb.o(i.WritePageExe) for WritePageExe
    mt29f2g01abagdwb.o(i.FlashFunTest) refers to systick.o(i.delay_1ms) for delay_1ms
    mt29f2g01abagdwb.o(i.FlashFunTest) refers to mt29f2g01abagdwb.o(i.ReadPageToCache) for ReadPageToCache
    mt29f2g01abagdwb.o(i.FlashFunTest) refers to mt29f2g01abagdwb.o(i.ReadFromCache) for ReadFromCache
    mt29f2g01abagdwb.o(i.FlashFunTest) refers to mt29f2g01abagdwb.o(.constdata) for .constdata
    mt29f2g01abagdwb.o(i.FlashFunTest) refers to mt29f2g01abagdwb.o(.data) for writeFlag
    mt29f2g01abagdwb.o(i.NandFlashInit) refers to hw_spi.o(i.SpiInit) for SpiInit
    mt29f2g01abagdwb.o(i.NandFlashInit) refers to mt29f2g01abagdwb.o(i.ReadFlashID) for ReadFlashID
    mt29f2g01abagdwb.o(i.NandFlashInit) refers to printfa.o(i.__0printf) for __2printf
    mt29f2g01abagdwb.o(i.NandFlashInit) refers to mt29f2g01abagdwb.o(i.DisableWp) for DisableWp
    mt29f2g01abagdwb.o(i.NandFlashInit) refers to mt29f2g01abagdwb.o(i.EarseBlock) for EarseBlock
    mt29f2g01abagdwb.o(i.ReadFlashID) refers to gd32f10x_gpio.o(i.gpio_bit_reset) for gpio_bit_reset
    mt29f2g01abagdwb.o(i.ReadFlashID) refers to hw_spi.o(i.spi_flash_send_byte) for spi_flash_send_byte
    mt29f2g01abagdwb.o(i.ReadFlashID) refers to hw_spi.o(i.spi_flash_read_byte) for spi_flash_read_byte
    mt29f2g01abagdwb.o(i.ReadFlashID) refers to gd32f10x_gpio.o(i.gpio_bit_set) for gpio_bit_set
    mt29f2g01abagdwb.o(i.ReadFromCache) refers to gd32f10x_gpio.o(i.gpio_bit_reset) for gpio_bit_reset
    mt29f2g01abagdwb.o(i.ReadFromCache) refers to hw_spi.o(i.spi_flash_send_byte) for spi_flash_send_byte
    mt29f2g01abagdwb.o(i.ReadFromCache) refers to hw_spi.o(i.spi_flash_read_byte) for spi_flash_read_byte
    mt29f2g01abagdwb.o(i.ReadFromCache) refers to gd32f10x_gpio.o(i.gpio_bit_set) for gpio_bit_set
    mt29f2g01abagdwb.o(i.ReadPageToCache) refers to gd32f10x_gpio.o(i.gpio_bit_reset) for gpio_bit_reset
    mt29f2g01abagdwb.o(i.ReadPageToCache) refers to hw_spi.o(i.spi_flash_send_byte) for spi_flash_send_byte
    mt29f2g01abagdwb.o(i.ReadPageToCache) refers to gd32f10x_gpio.o(i.gpio_bit_set) for gpio_bit_set
    mt29f2g01abagdwb.o(i.ReadPageToCache) refers to mt29f2g01abagdwb.o(i.WaitForActionEnd) for WaitForActionEnd
    mt29f2g01abagdwb.o(i.WaitForActionEnd) refers to gd32f10x_gpio.o(i.gpio_bit_reset) for gpio_bit_reset
    mt29f2g01abagdwb.o(i.WaitForActionEnd) refers to hw_spi.o(i.spi_flash_send_byte) for spi_flash_send_byte
    mt29f2g01abagdwb.o(i.WaitForActionEnd) refers to hw_spi.o(i.spi_flash_read_byte) for spi_flash_read_byte
    mt29f2g01abagdwb.o(i.WaitForActionEnd) refers to gd32f10x_gpio.o(i.gpio_bit_set) for gpio_bit_set
    mt29f2g01abagdwb.o(i.WriteEnable) refers to gd32f10x_gpio.o(i.gpio_bit_reset) for gpio_bit_reset
    mt29f2g01abagdwb.o(i.WriteEnable) refers to hw_spi.o(i.spi_flash_send_byte) for spi_flash_send_byte
    mt29f2g01abagdwb.o(i.WriteEnable) refers to gd32f10x_gpio.o(i.gpio_bit_set) for gpio_bit_set
    mt29f2g01abagdwb.o(i.WritePageExe) refers to gd32f10x_gpio.o(i.gpio_bit_reset) for gpio_bit_reset
    mt29f2g01abagdwb.o(i.WritePageExe) refers to hw_spi.o(i.spi_flash_send_byte) for spi_flash_send_byte
    mt29f2g01abagdwb.o(i.WritePageExe) refers to gd32f10x_gpio.o(i.gpio_bit_set) for gpio_bit_set
    mt29f2g01abagdwb.o(i.WritePageExe) refers to mt29f2g01abagdwb.o(i.WaitForActionEnd) for WaitForActionEnd
    mt29f2g01abagdwb.o(i.WritePageLoad) refers to mt29f2g01abagdwb.o(i.WriteEnable) for WriteEnable
    mt29f2g01abagdwb.o(i.WritePageLoad) refers to gd32f10x_gpio.o(i.gpio_bit_reset) for gpio_bit_reset
    mt29f2g01abagdwb.o(i.WritePageLoad) refers to hw_spi.o(i.spi_flash_send_byte) for spi_flash_send_byte
    mt29f2g01abagdwb.o(i.WritePageLoad) refers to gd32f10x_gpio.o(i.gpio_bit_set) for gpio_bit_set
    cj2301.o(i.Cj2301CheckConnect) refers to systick.o(i.delay_1us) for delay_1us
    cj2301.o(i.Cj2301CheckConnect) refers to gd32f10x_gpio.o(i.gpio_input_bit_get) for gpio_input_bit_get
    cj2301.o(i.Cj2301CheckConnect) refers to init.o(.data) for systemFlag
    cj2301.o(i.Cj2301_Init) refers to cj2301.o(i.Cj2301CheckConnect) for Cj2301CheckConnect
    cj2301.o(i.Cj2301_Init) refers to printfa.o(i.__0printf) for __2printf
    cj2301.o(i.Cj2301_Init) refers to init.o(.data) for systemFlag
    cj2301.o(i.Cj2301_Init) refers to cj2301.o(.data) for step
    cj2301.o(i.Cj2301_Read) refers to cj2301.o(i.Cj2301_ReadTempHumi) for Cj2301_ReadTempHumi
    cj2301.o(i.Cj2301_Read) refers to init.o(.data) for systemFlag
    cj2301.o(i.Cj2301_ReadTempHumi) refers to cj2301.o(i.Cj2301_StartReadTempHumi) for Cj2301_StartReadTempHumi
    cj2301.o(i.Cj2301_ReadTempHumi) refers to cj2301.o(i.ReadByte) for ReadByte
    cj2301.o(i.Cj2301_ReadTempHumi) refers to cj2301.o(i.Cj2301_EndRead) for Cj2301_EndRead
    cj2301.o(i.Cj2301_ReadTempHumi) refers to printfa.o(i.__0printf) for __2printf
    cj2301.o(i.Cj2301_ReadTempHumi) refers to cj2301.o(i.GetWaterTemp) for GetWaterTemp
    cj2301.o(i.Cj2301_ReadTempHumi) refers to wh_nb73.o(.bss) for NbInfo
    cj2301.o(i.Cj2301_ReadTempHumi) refers to init.o(.data) for systemFlag
    cj2301.o(i.Cj2301_StartReadTempHumi) refers to systick.o(i.delay_1us) for delay_1us
    cj2301.o(i.Cj2301_StartReadTempHumi) refers to gd32f10x_gpio.o(i.gpio_input_bit_get) for gpio_input_bit_get
    cj2301.o(i.GetWaterTemp) refers to fflti.o(.text) for __aeabi_i2f
    cj2301.o(i.GetWaterTemp) refers to fadd.o(.text) for __aeabi_fsub
    cj2301.o(i.GetWaterTemp) refers to fdiv.o(.text) for __aeabi_fdiv
    cj2301.o(i.GetWaterTemp) refers to fmul.o(.text) for __aeabi_fmul
    cj2301.o(i.GetWaterTemp) refers to wh_nb73.o(.bss) for NbInfo
    cj2301.o(i.GetWaterTemp) refers to cj2301.o(.data) for waterTable
    cj2301.o(i.ReadBit) refers to systick.o(i.delay_1us) for delay_1us
    cj2301.o(i.ReadBit) refers to gd32f10x_gpio.o(i.gpio_input_bit_get) for gpio_input_bit_get
    cj2301.o(i.ReadByte) refers to cj2301.o(i.ReadBit) for ReadBit
    hw_timer.o(i.SignalTimerDisable) refers to gd32f10x_timer.o(i.timer_disable) for timer_disable
    hw_timer.o(i.SignalTimerEnable) refers to gd32f10x_timer.o(i.timer_enable) for timer_enable
    hw_timer.o(i.SignalTimerInit) refers to gd32f10x_rcu.o(i.rcu_periph_clock_enable) for rcu_periph_clock_enable
    hw_timer.o(i.SignalTimerInit) refers to gd32f10x_timer.o(i.timer_deinit) for timer_deinit
    hw_timer.o(i.SignalTimerInit) refers to gd32f10x_timer.o(i.timer_init) for timer_init
    hw_timer.o(i.SignalTimerInit) refers to gd32f10x_timer.o(i.timer_interrupt_flag_clear) for timer_interrupt_flag_clear
    hw_timer.o(i.SignalTimerInit) refers to gd32f10x_timer.o(i.timer_interrupt_enable) for timer_interrupt_enable
    hw_timer.o(i.TIMER1_IRQHandler) refers to gd32f10x_timer.o(i.timer_interrupt_flag_get) for timer_interrupt_flag_get
    hw_timer.o(i.TIMER1_IRQHandler) refers to gd32f10x_timer.o(i.timer_interrupt_flag_clear) for timer_interrupt_flag_clear
    hw_timer.o(i.TIMER1_IRQHandler) refers to hw_timer.o(.data) for count
    hw_timer.o(i.TIMER1_IRQHandler) refers to wh_nb73.o(.bss) for NbInfo
    hw_timer.o(i.TIMER1_IRQHandler) refers to init.o(.data) for systemFlag
    hw_timer.o(i.TIMER1_IRQHandler) refers to commucateslave.o(.data) for PakTimer
    hw_timer.o(i.TIMER1_IRQHandler) refers to commucateslave.o(.bss) for PrtocolStr
    hw_timer.o(i.TIMER2_IRQHandler) refers to gd32f10x_timer.o(i.timer_interrupt_flag_get) for timer_interrupt_flag_get
    hw_timer.o(i.TIMER2_IRQHandler) refers to gd32f10x_timer.o(i.timer_interrupt_flag_clear) for timer_interrupt_flag_clear
    hw_timer.o(i.TIMER2_IRQHandler) refers to init.o(.bss) for SigInfo
    hw_timer.o(i.Timer_1ms_Init) refers to gd32f10x_rcu.o(i.rcu_periph_clock_enable) for rcu_periph_clock_enable
    hw_timer.o(i.Timer_1ms_Init) refers to gd32f10x_timer.o(i.timer_deinit) for timer_deinit
    hw_timer.o(i.Timer_1ms_Init) refers to gd32f10x_timer.o(i.timer_init) for timer_init
    hw_timer.o(i.Timer_1ms_Init) refers to gd32f10x_timer.o(i.timer_interrupt_flag_clear) for timer_interrupt_flag_clear
    hw_timer.o(i.Timer_1ms_Init) refers to gd32f10x_timer.o(i.timer_interrupt_enable) for timer_interrupt_enable
    hw_timer.o(i.Timer_1ms_Init) refers to gd32f10x_timer.o(i.timer_enable) for timer_enable
    hw_timer.o(i.nvic_config) refers to gd32f10x_misc.o(i.nvic_priority_group_set) for nvic_priority_group_set
    hw_timer.o(i.nvic_config) refers to gd32f10x_misc.o(i.nvic_irq_enable) for nvic_irq_enable
    hw_uart.o(i.CommunAdd) refers to gd32f10x_usart.o(i.usart_interrupt_disable) for usart_interrupt_disable
    hw_uart.o(i.CommunAdd) refers to gd32f10x_usart.o(i.usart_interrupt_enable) for usart_interrupt_enable
    hw_uart.o(i.CommunAdd) refers to hw_uart.o(.data) for CommunCount
    hw_uart.o(i.CommunAdd) refers to hw_uart.o(.bss) for CommunBuff
    hw_uart.o(i.CommunCheck) refers to hw_uart.o(.data) for CommunCount
    hw_uart.o(i.CommunGetData) refers to gd32f10x_usart.o(i.usart_interrupt_disable) for usart_interrupt_disable
    hw_uart.o(i.CommunGetData) refers to gd32f10x_usart.o(i.usart_interrupt_enable) for usart_interrupt_enable
    hw_uart.o(i.CommunGetData) refers to hw_uart.o(.data) for CommunCount
    hw_uart.o(i.CommunGetData) refers to hw_uart.o(.bss) for CommunBuff
    hw_uart.o(i.CommunUartSendBuf) refers to gd32f10x_usart.o(i.usart_data_transmit) for usart_data_transmit
    hw_uart.o(i.CommunUartSendBuf) refers to gd32f10x_usart.o(i.usart_flag_get) for usart_flag_get
    hw_uart.o(i.HostAdd) refers to gd32f10x_misc.o(i.nvic_irq_disable) for nvic_irq_disable
    hw_uart.o(i.HostAdd) refers to gd32f10x_misc.o(i.nvic_irq_enable) for nvic_irq_enable
    hw_uart.o(i.HostAdd) refers to hw_uart.o(.data) for HostCount
    hw_uart.o(i.HostAdd) refers to hw_uart.o(.bss) for HostBuff
    hw_uart.o(i.HostCheck) refers to hw_uart.o(.data) for HostCount
    hw_uart.o(i.HostGetData) refers to gd32f10x_misc.o(i.nvic_irq_disable) for nvic_irq_disable
    hw_uart.o(i.HostGetData) refers to gd32f10x_misc.o(i.nvic_irq_enable) for nvic_irq_enable
    hw_uart.o(i.HostGetData) refers to hw_uart.o(.data) for HostCount
    hw_uart.o(i.HostGetData) refers to hw_uart.o(.bss) for HostBuff
    hw_uart.o(i.HostUartSendBuf) refers to gd32f10x_usart.o(i.usart_data_transmit) for usart_data_transmit
    hw_uart.o(i.HostUartSendBuf) refers to gd32f10x_usart.o(i.usart_flag_get) for usart_flag_get
    hw_uart.o(i.NbAdd) refers to gd32f10x_usart.o(i.usart_interrupt_disable) for usart_interrupt_disable
    hw_uart.o(i.NbAdd) refers to gd32f10x_usart.o(i.usart_interrupt_enable) for usart_interrupt_enable
    hw_uart.o(i.NbAdd) refers to hw_uart.o(.data) for NbCount
    hw_uart.o(i.NbAdd) refers to hw_uart.o(.bss) for NbBuff
    hw_uart.o(i.NbCheck) refers to hw_uart.o(.data) for NbCount
    hw_uart.o(i.NbGetData) refers to gd32f10x_usart.o(i.usart_interrupt_disable) for usart_interrupt_disable
    hw_uart.o(i.NbGetData) refers to gd32f10x_usart.o(i.usart_interrupt_enable) for usart_interrupt_enable
    hw_uart.o(i.NbGetData) refers to hw_uart.o(.data) for NbCount
    hw_uart.o(i.NbGetData) refers to hw_uart.o(.bss) for NbBuff
    hw_uart.o(i.NbUartSendBuf) refers to gd32f10x_usart.o(i.usart_data_transmit) for usart_data_transmit
    hw_uart.o(i.NbUartSendBuf) refers to gd32f10x_usart.o(i.usart_flag_get) for usart_flag_get
    hw_uart.o(i.NbUartSendBuf) refers to hw_uart.o(i.HostUartSendBuf) for HostUartSendBuf
    hw_uart.o(i.NbUartSendBuf) refers to init.o(.data) for systemFlag
    hw_uart.o(i.USART0_IRQHandler) refers to gd32f10x_usart.o(i.usart_interrupt_flag_get) for usart_interrupt_flag_get
    hw_uart.o(i.USART0_IRQHandler) refers to gd32f10x_usart.o(i.usart_data_receive) for usart_data_receive
    hw_uart.o(i.USART0_IRQHandler) refers to hw_uart.o(i.NbAdd) for NbAdd
    hw_uart.o(i.USART0_IRQHandler) refers to gd32f10x_usart.o(i.usart_interrupt_flag_clear) for usart_interrupt_flag_clear
    hw_uart.o(i.USART1_IRQHandler) refers to gd32f10x_usart.o(i.usart_interrupt_flag_get) for usart_interrupt_flag_get
    hw_uart.o(i.USART1_IRQHandler) refers to gd32f10x_usart.o(i.usart_data_receive) for usart_data_receive
    hw_uart.o(i.USART1_IRQHandler) refers to hw_uart.o(i.HostAdd) for HostAdd
    hw_uart.o(i.USART1_IRQHandler) refers to gd32f10x_usart.o(i.usart_interrupt_flag_clear) for usart_interrupt_flag_clear
    hw_uart.o(i.USART2_IRQHandler) refers to gd32f10x_usart.o(i.usart_interrupt_flag_get) for usart_interrupt_flag_get
    hw_uart.o(i.USART2_IRQHandler) refers to gd32f10x_usart.o(i.usart_data_receive) for usart_data_receive
    hw_uart.o(i.USART2_IRQHandler) refers to hw_uart.o(i.CommunAdd) for CommunAdd
    hw_uart.o(i.USART2_IRQHandler) refers to gd32f10x_usart.o(i.usart_interrupt_flag_clear) for usart_interrupt_flag_clear
    hw_uart.o(i.UartCommuncateInit) refers to gd32f10x_gpio.o(i.gpio_init) for gpio_init
    hw_uart.o(i.UartCommuncateInit) refers to gd32f10x_usart.o(i.usart_deinit) for usart_deinit
    hw_uart.o(i.UartCommuncateInit) refers to gd32f10x_usart.o(i.usart_baudrate_set) for usart_baudrate_set
    hw_uart.o(i.UartCommuncateInit) refers to gd32f10x_usart.o(i.usart_word_length_set) for usart_word_length_set
    hw_uart.o(i.UartCommuncateInit) refers to gd32f10x_usart.o(i.usart_stop_bit_set) for usart_stop_bit_set
    hw_uart.o(i.UartCommuncateInit) refers to gd32f10x_usart.o(i.usart_parity_config) for usart_parity_config
    hw_uart.o(i.UartCommuncateInit) refers to gd32f10x_usart.o(i.usart_hardware_flow_rts_config) for usart_hardware_flow_rts_config
    hw_uart.o(i.UartCommuncateInit) refers to gd32f10x_usart.o(i.usart_hardware_flow_cts_config) for usart_hardware_flow_cts_config
    hw_uart.o(i.UartCommuncateInit) refers to gd32f10x_usart.o(i.usart_receive_config) for usart_receive_config
    hw_uart.o(i.UartCommuncateInit) refers to gd32f10x_usart.o(i.usart_transmit_config) for usart_transmit_config
    hw_uart.o(i.UartCommuncateInit) refers to gd32f10x_usart.o(i.usart_interrupt_enable) for usart_interrupt_enable
    hw_uart.o(i.UartCommuncateInit) refers to gd32f10x_usart.o(i.usart_enable) for usart_enable
    hw_uart.o(i.UartCommuncateInit) refers to gd32f10x_misc.o(i.nvic_irq_enable) for nvic_irq_enable
    hw_uart.o(i.UartHostInit) refers to gd32f10x_gpio.o(i.gpio_init) for gpio_init
    hw_uart.o(i.UartHostInit) refers to gd32f10x_usart.o(i.usart_deinit) for usart_deinit
    hw_uart.o(i.UartHostInit) refers to gd32f10x_usart.o(i.usart_baudrate_set) for usart_baudrate_set
    hw_uart.o(i.UartHostInit) refers to gd32f10x_usart.o(i.usart_word_length_set) for usart_word_length_set
    hw_uart.o(i.UartHostInit) refers to gd32f10x_usart.o(i.usart_stop_bit_set) for usart_stop_bit_set
    hw_uart.o(i.UartHostInit) refers to gd32f10x_usart.o(i.usart_parity_config) for usart_parity_config
    hw_uart.o(i.UartHostInit) refers to gd32f10x_usart.o(i.usart_hardware_flow_rts_config) for usart_hardware_flow_rts_config
    hw_uart.o(i.UartHostInit) refers to gd32f10x_usart.o(i.usart_hardware_flow_cts_config) for usart_hardware_flow_cts_config
    hw_uart.o(i.UartHostInit) refers to gd32f10x_usart.o(i.usart_receive_config) for usart_receive_config
    hw_uart.o(i.UartHostInit) refers to gd32f10x_usart.o(i.usart_transmit_config) for usart_transmit_config
    hw_uart.o(i.UartHostInit) refers to gd32f10x_usart.o(i.usart_interrupt_enable) for usart_interrupt_enable
    hw_uart.o(i.UartHostInit) refers to gd32f10x_usart.o(i.usart_enable) for usart_enable
    hw_uart.o(i.UartHostInit) refers to gd32f10x_misc.o(i.nvic_irq_enable) for nvic_irq_enable
    hw_uart.o(i.UartHostInit) refers to wh_nb73.o(.bss) for StoreConf
    hw_uart.o(i.UartHostReinit) refers to gd32f10x_usart.o(i.usart_interrupt_disable) for usart_interrupt_disable
    hw_uart.o(i.UartHostReinit) refers to gd32f10x_usart.o(i.usart_disable) for usart_disable
    hw_uart.o(i.UartHostReinit) refers to hw_uart.o(i.UartHostInit) for UartHostInit
    hw_uart.o(i.UartInit) refers to hw_uart.o(i.UartNbInit) for UartNbInit
    hw_uart.o(i.UartInit) refers to hw_uart.o(i.UartHostInit) for UartHostInit
    hw_uart.o(i.UartInit) refers to hw_uart.o(i.UartCommuncateInit) for UartCommuncateInit
    hw_uart.o(i.UartNbInit) refers to gd32f10x_gpio.o(i.gpio_init) for gpio_init
    hw_uart.o(i.UartNbInit) refers to gd32f10x_usart.o(i.usart_deinit) for usart_deinit
    hw_uart.o(i.UartNbInit) refers to gd32f10x_usart.o(i.usart_baudrate_set) for usart_baudrate_set
    hw_uart.o(i.UartNbInit) refers to gd32f10x_usart.o(i.usart_word_length_set) for usart_word_length_set
    hw_uart.o(i.UartNbInit) refers to gd32f10x_usart.o(i.usart_stop_bit_set) for usart_stop_bit_set
    hw_uart.o(i.UartNbInit) refers to gd32f10x_usart.o(i.usart_parity_config) for usart_parity_config
    hw_uart.o(i.UartNbInit) refers to gd32f10x_usart.o(i.usart_hardware_flow_rts_config) for usart_hardware_flow_rts_config
    hw_uart.o(i.UartNbInit) refers to gd32f10x_usart.o(i.usart_hardware_flow_cts_config) for usart_hardware_flow_cts_config
    hw_uart.o(i.UartNbInit) refers to gd32f10x_usart.o(i.usart_receive_config) for usart_receive_config
    hw_uart.o(i.UartNbInit) refers to gd32f10x_usart.o(i.usart_transmit_config) for usart_transmit_config
    hw_uart.o(i.UartNbInit) refers to gd32f10x_usart.o(i.usart_interrupt_enable) for usart_interrupt_enable
    hw_uart.o(i.UartNbInit) refers to gd32f10x_usart.o(i.usart_enable) for usart_enable
    hw_uart.o(i.UartNbInit) refers to gd32f10x_misc.o(i.nvic_irq_enable) for nvic_irq_enable
    hw_uart.o(i.fputc) refers to gd32f10x_usart.o(i.usart_data_transmit) for usart_data_transmit
    hw_uart.o(i.fputc) refers to gd32f10x_usart.o(i.usart_flag_get) for usart_flag_get
    hw_exit.o(i.EXTI10_15_IRQHandler) refers to gd32f10x_exti.o(i.exti_interrupt_flag_get) for exti_interrupt_flag_get
    hw_exit.o(i.EXTI10_15_IRQHandler) refers to gd32f10x_exti.o(i.exti_interrupt_flag_clear) for exti_interrupt_flag_clear
    hw_exit.o(i.EXTI10_15_IRQHandler) refers to hw_timer.o(i.SignalTimerEnable) for SignalTimerEnable
    hw_exit.o(i.EXTI10_15_IRQHandler) refers to hw_timer.o(i.SignalTimerDisable) for SignalTimerDisable
    hw_exit.o(i.EXTI10_15_IRQHandler) refers to init.o(.bss) for SigInfo
    hw_exit.o(i.EXTI10_15_IRQHandler) refers to init.o(.data) for systemFlag
    hw_exit.o(i.EXTI10_15_IRQHandler) refers to wh_nb73.o(.bss) for NbInfo
    hw_exit.o(i.ExitInit) refers to gd32f10x_gpio.o(i.gpio_init) for gpio_init
    hw_exit.o(i.ExitInit) refers to gd32f10x_gpio.o(i.gpio_exti_source_select) for gpio_exti_source_select
    hw_exit.o(i.ExitInit) refers to gd32f10x_exti.o(i.exti_init) for exti_init
    hw_exit.o(i.ExitInit) refers to gd32f10x_exti.o(i.exti_interrupt_flag_clear) for exti_interrupt_flag_clear
    hw_exit.o(i.ExitInit) refers to gd32f10x_misc.o(i.nvic_irq_enable) for nvic_irq_enable
    hw_exit.o(i.GetChannel3_Status) refers to gd32f10x_gpio.o(i.gpio_input_bit_get) for gpio_input_bit_get
    hw_exit.o(i.GetChannel3_Status) refers to init.o(.data) for systemFlag
    hw_exit.o(i.GetChannel3_Status) refers to wh_nb73.o(.bss) for StoreConf
    hw_exit.o(i.GetExitPinVal) refers to gd32f10x_gpio.o(i.gpio_input_bit_get) for gpio_input_bit_get
    hw_exit.o(i.GetExitPinVal) refers to printfa.o(i.__0printf) for __2printf
    hw_exit.o(i.GetExitPinVal) refers to hw_exit.o(.data) for old_t1
    hw_exit.o(i.GetExitPinVal) refers to init.o(.data) for systemFlag
    hw_exit.o(i.SignalCheck) refers to hw_timer.o(i.SignalTimerDisable) for SignalTimerDisable
    hw_exit.o(i.SignalCheck) refers to hw_fmc.o(i.StoreInfoAdd) for StoreInfoAdd
    hw_exit.o(i.SignalCheck) refers to printfa.o(i.__0printf) for __2printf
    hw_exit.o(i.SignalCheck) refers to gd32f10x_gpio.o(i.gpio_input_bit_get) for gpio_input_bit_get
    hw_exit.o(i.SignalCheck) refers to ffltui.o(.text) for __aeabi_ui2f
    hw_exit.o(i.SignalCheck) refers to f2d.o(.text) for __aeabi_f2d
    hw_exit.o(i.SignalCheck) refers to ddiv.o(.text) for __aeabi_ddiv
    hw_exit.o(i.SignalCheck) refers to d2f.o(.text) for __aeabi_d2f
    hw_exit.o(i.SignalCheck) refers to fmul.o(.text) for __aeabi_fmul
    hw_exit.o(i.SignalCheck) refers to ffixui.o(.text) for __aeabi_f2uiz
    hw_exit.o(i.SignalCheck) refers to hw_timer.o(i.SignalTimerEnable) for SignalTimerEnable
    hw_exit.o(i.SignalCheck) refers to init.o(.bss) for SigInfo
    hw_exit.o(i.SignalCheck) refers to wh_nb73.o(.bss) for NbInfo
    hw_exit.o(i.SignalCheck) refers to hw_exit.o(.data) for error1_count
    hw_exit.o(i.SignalCheck) refers to init.o(.data) for systemFlag
    hw_i2c.o(i.I2C_Init) refers to gd32f10x_gpio.o(i.gpio_init) for gpio_init
    hw_i2c.o(i.I2C_Init) refers to gd32f10x_gpio.o(i.gpio_pin_remap_config) for gpio_pin_remap_config
    hw_i2c.o(i.I2C_Init) refers to gd32f10x_i2c.o(i.i2c_clock_config) for i2c_clock_config
    hw_i2c.o(i.I2C_Init) refers to gd32f10x_i2c.o(i.i2c_mode_addr_config) for i2c_mode_addr_config
    hw_i2c.o(i.I2C_Init) refers to gd32f10x_i2c.o(i.i2c_enable) for i2c_enable
    hw_fmc.o(i.FMC_StoreInfoInit) refers to memcpya.o(.text) for __aeabi_memcpy4
    hw_fmc.o(i.FMC_StoreInfoInit) refers to hw_fmc.o(i.CheckCRC) for CheckCRC
    hw_fmc.o(i.FMC_StoreInfoInit) refers to memseta.o(.text) for __aeabi_memclr4
    hw_fmc.o(i.FMC_StoreInfoInit) refers to hw_fmc.o(i.WriteStoreInfo) for WriteStoreInfo
    hw_fmc.o(i.FMC_StoreInfoInit) refers to hw_fmc.o(i.WriteStoreConf) for WriteStoreConf
    hw_fmc.o(i.FMC_StoreInfoInit) refers to init.o(.bss) for StoreInfo
    hw_fmc.o(i.FMC_StoreInfoInit) refers to wh_nb73.o(.bss) for NbInfo
    hw_fmc.o(i.StoreConfStore) refers to hw_fmc.o(i.CheckCRC) for CheckCRC
    hw_fmc.o(i.StoreConfStore) refers to hw_fmc.o(i.WriteStoreConf) for WriteStoreConf
    hw_fmc.o(i.StoreConfStore) refers to wh_nb73.o(.bss) for StoreConf
    hw_fmc.o(i.StoreConfUpdate) refers to memcpya.o(.text) for __aeabi_memcpy4
    hw_fmc.o(i.StoreConfUpdate) refers to hw_fmc.o(i.CheckCRC) for CheckCRC
    hw_fmc.o(i.StoreConfUpdate) refers to hw_fmc.o(i.WriteStoreConf) for WriteStoreConf
    hw_fmc.o(i.StoreConfUpdate) refers to wh_nb73.o(.bss) for NbInfo
    hw_fmc.o(i.StoreInfoAdd) refers to isl1208.o(i.Isl1208GetTime) for Isl1208GetTime
    hw_fmc.o(i.StoreInfoAdd) refers to hw_fmc.o(i.CheckCRC) for CheckCRC
    hw_fmc.o(i.StoreInfoAdd) refers to hw_fmc.o(i.WriteStoreInfo) for WriteStoreInfo
    hw_fmc.o(i.StoreInfoAdd) refers to wh_nb73.o(.bss) for NbInfo
    hw_fmc.o(i.StoreInfoAdd) refers to init.o(.bss) for StoreInfo
    hw_fmc.o(i.StoreInfoCheck) refers to memcpya.o(.text) for __aeabi_memcpy4
    hw_fmc.o(i.StoreInfoCheck) refers to memcmp.o(.text) for memcmp
    hw_fmc.o(i.StoreInfoCheck) refers to hw_fmc.o(.data) for count
    hw_fmc.o(i.StoreInfoCheck) refers to wh_nb73.o(.bss) for StoreConf
    hw_fmc.o(i.StorePageErase) refers to gd32f10x_fmc.o(i.fmc_unlock) for fmc_unlock
    hw_fmc.o(i.StorePageErase) refers to gd32f10x_fmc.o(i.fmc_flag_clear) for fmc_flag_clear
    hw_fmc.o(i.StorePageErase) refers to gd32f10x_fmc.o(i.fmc_page_erase) for fmc_page_erase
    hw_fmc.o(i.StorePageErase) refers to gd32f10x_fmc.o(i.fmc_lock) for fmc_lock
    hw_fmc.o(i.WriteStoreConf) refers to hw_fmc.o(i.StorePageErase) for StorePageErase
    hw_fmc.o(i.WriteStoreConf) refers to gd32f10x_fmc.o(i.fmc_unlock) for fmc_unlock
    hw_fmc.o(i.WriteStoreConf) refers to gd32f10x_fmc.o(i.fmc_word_program) for fmc_word_program
    hw_fmc.o(i.WriteStoreConf) refers to gd32f10x_fmc.o(i.fmc_flag_clear) for fmc_flag_clear
    hw_fmc.o(i.WriteStoreConf) refers to gd32f10x_fmc.o(i.fmc_lock) for fmc_lock
    hw_fmc.o(i.WriteStoreConf) refers to wh_nb73.o(.bss) for StoreConf
    hw_fmc.o(i.WriteStoreInfo) refers to hw_fmc.o(i.StorePageErase) for StorePageErase
    hw_fmc.o(i.WriteStoreInfo) refers to gd32f10x_fmc.o(i.fmc_unlock) for fmc_unlock
    hw_fmc.o(i.WriteStoreInfo) refers to gd32f10x_fmc.o(i.fmc_word_program) for fmc_word_program
    hw_fmc.o(i.WriteStoreInfo) refers to gd32f10x_fmc.o(i.fmc_flag_clear) for fmc_flag_clear
    hw_fmc.o(i.WriteStoreInfo) refers to gd32f10x_fmc.o(i.fmc_lock) for fmc_lock
    hw_fmc.o(i.WriteStoreInfo) refers to init.o(.bss) for StoreInfo
    hw_wdgt.o(i.WdgtFeed) refers to gd32f10x_fwdgt.o(i.fwdgt_counter_reload) for fwdgt_counter_reload
    hw_wdgt.o(i.WdgtFeed) refers to hw_wdgt.o(.data) for count
    hw_wdgt.o(i.WdgtInit) refers to gd32f10x_fwdgt.o(i.fwdgt_config) for fwdgt_config
    hw_wdgt.o(i.WdgtInit) refers to gd32f10x_fwdgt.o(i.fwdgt_enable) for fwdgt_enable
    hw_spi.o(i.SpiInit) refers to gd32f10x_spi.o(i.spi_i2s_deinit) for spi_i2s_deinit
    hw_spi.o(i.SpiInit) refers to gd32f10x_gpio.o(i.gpio_init) for gpio_init
    hw_spi.o(i.SpiInit) refers to gd32f10x_gpio.o(i.gpio_bit_set) for gpio_bit_set
    hw_spi.o(i.SpiInit) refers to gd32f10x_spi.o(i.spi_init) for spi_init
    hw_spi.o(i.SpiInit) refers to gd32f10x_spi.o(i.spi_enable) for spi_enable
    hw_spi.o(i.spi_flash_read_byte) refers to hw_spi.o(i.spi_flash_send_byte) for spi_flash_send_byte
    hw_spi.o(i.spi_flash_send_byte) refers to gd32f10x_spi.o(i.spi_i2s_flag_get) for spi_i2s_flag_get
    hw_spi.o(i.spi_flash_send_byte) refers to gd32f10x_spi.o(i.spi_i2s_data_transmit) for spi_i2s_data_transmit
    hw_spi.o(i.spi_flash_send_byte) refers to gd32f10x_spi.o(i.spi_i2s_data_receive) for spi_i2s_data_receive
    entry.o(.ARM.Collect$$$$00000000) refers (Special) to entry10a.o(.ARM.Collect$$$$0000000D) for __rt_final_cpp
    entry.o(.ARM.Collect$$$$00000000) refers (Special) to entry11a.o(.ARM.Collect$$$$0000000F) for __rt_final_exit
    entry.o(.ARM.Collect$$$$00000000) refers (Special) to entry7b.o(.ARM.Collect$$$$00000008) for _main_clock
    entry.o(.ARM.Collect$$$$00000000) refers (Special) to entry8b.o(.ARM.Collect$$$$0000000A) for _main_cpp_init
    entry.o(.ARM.Collect$$$$00000000) refers (Special) to entry9a.o(.ARM.Collect$$$$0000000B) for _main_init
    entry.o(.ARM.Collect$$$$00000000) refers (Special) to entry5.o(.ARM.Collect$$$$00000004) for _main_scatterload
    entry.o(.ARM.Collect$$$$00000000) refers (Special) to entry2.o(.ARM.Collect$$$$00000001) for _main_stk
    rand.o(.text) refers to rand.o(.data) for .data
    localtime.o(.text) refers to localtime.o(.bss) for .bss
    localtime.o(.text) refers to localtime.o(.constdata) for .constdata
    mktime.o(.text) refers to localtime_i.o(.text) for _localtime
    mktime.o(.text) refers to mktime.o(.constdata) for .constdata
    printfb.o(i.__0fprintf$bare) refers to printfb.o(i._printf_core) for _printf_core
    printfb.o(i.__0fprintf$bare) refers to hw_uart.o(i.fputc) for fputc
    printfb.o(i.__0printf$bare) refers to printfb.o(i._printf_core) for _printf_core
    printfb.o(i.__0printf$bare) refers to hw_uart.o(i.fputc) for fputc
    printfb.o(i.__0printf$bare) refers to stdout.o(.data) for __stdout
    printfb.o(i.__0snprintf$bare) refers to printfb.o(i._printf_core) for _printf_core
    printfb.o(i.__0snprintf$bare) refers to printfb.o(i._snputc) for _snputc
    printfb.o(i.__0sprintf$bare) refers to printfb.o(i._printf_core) for _printf_core
    printfb.o(i.__0sprintf$bare) refers to printfb.o(i._sputc) for _sputc
    printfb.o(i.__0vfprintf$bare) refers to printfb.o(i._printf_core) for _printf_core
    printfb.o(i.__0vfprintf$bare) refers to hw_uart.o(i.fputc) for fputc
    printfb.o(i.__0vprintf$bare) refers to printfb.o(i._printf_core) for _printf_core
    printfb.o(i.__0vprintf$bare) refers to hw_uart.o(i.fputc) for fputc
    printfb.o(i.__0vprintf$bare) refers to stdout.o(.data) for __stdout
    printfb.o(i.__0vsnprintf$bare) refers to printfb.o(i._printf_core) for _printf_core
    printfb.o(i.__0vsnprintf$bare) refers to printfb.o(i._snputc) for _snputc
    printfb.o(i.__0vsprintf$bare) refers to printfb.o(i._printf_core) for _printf_core
    printfb.o(i.__0vsprintf$bare) refers to printfb.o(i._sputc) for _sputc
    printf0.o(i.__0fprintf$0) refers to printf0.o(i._printf_core) for _printf_core
    printf0.o(i.__0fprintf$0) refers to hw_uart.o(i.fputc) for fputc
    printf0.o(i.__0printf$0) refers to printf0.o(i._printf_core) for _printf_core
    printf0.o(i.__0printf$0) refers to hw_uart.o(i.fputc) for fputc
    printf0.o(i.__0printf$0) refers to stdout.o(.data) for __stdout
    printf0.o(i.__0snprintf$0) refers to printf0.o(i._printf_core) for _printf_core
    printf0.o(i.__0snprintf$0) refers to printf0.o(i._snputc) for _snputc
    printf0.o(i.__0sprintf$0) refers to printf0.o(i._printf_core) for _printf_core
    printf0.o(i.__0sprintf$0) refers to printf0.o(i._sputc) for _sputc
    printf0.o(i.__0vfprintf$0) refers to printf0.o(i._printf_core) for _printf_core
    printf0.o(i.__0vfprintf$0) refers to hw_uart.o(i.fputc) for fputc
    printf0.o(i.__0vprintf$0) refers to printf0.o(i._printf_core) for _printf_core
    printf0.o(i.__0vprintf$0) refers to hw_uart.o(i.fputc) for fputc
    printf0.o(i.__0vprintf$0) refers to stdout.o(.data) for __stdout
    printf0.o(i.__0vsnprintf$0) refers to printf0.o(i._printf_core) for _printf_core
    printf0.o(i.__0vsnprintf$0) refers to printf0.o(i._snputc) for _snputc
    printf0.o(i.__0vsprintf$0) refers to printf0.o(i._printf_core) for _printf_core
    printf0.o(i.__0vsprintf$0) refers to printf0.o(i._sputc) for _sputc
    printf1.o(i.__0fprintf$1) refers to printf1.o(i._printf_core) for _printf_core
    printf1.o(i.__0fprintf$1) refers to hw_uart.o(i.fputc) for fputc
    printf1.o(i.__0printf$1) refers to printf1.o(i._printf_core) for _printf_core
    printf1.o(i.__0printf$1) refers to hw_uart.o(i.fputc) for fputc
    printf1.o(i.__0printf$1) refers to stdout.o(.data) for __stdout
    printf1.o(i.__0snprintf$1) refers to printf1.o(i._printf_core) for _printf_core
    printf1.o(i.__0snprintf$1) refers to printf1.o(i._snputc) for _snputc
    printf1.o(i.__0sprintf$1) refers to printf1.o(i._printf_core) for _printf_core
    printf1.o(i.__0sprintf$1) refers to printf1.o(i._sputc) for _sputc
    printf1.o(i.__0vfprintf$1) refers to printf1.o(i._printf_core) for _printf_core
    printf1.o(i.__0vfprintf$1) refers to hw_uart.o(i.fputc) for fputc
    printf1.o(i.__0vprintf$1) refers to printf1.o(i._printf_core) for _printf_core
    printf1.o(i.__0vprintf$1) refers to hw_uart.o(i.fputc) for fputc
    printf1.o(i.__0vprintf$1) refers to stdout.o(.data) for __stdout
    printf1.o(i.__0vsnprintf$1) refers to printf1.o(i._printf_core) for _printf_core
    printf1.o(i.__0vsnprintf$1) refers to printf1.o(i._snputc) for _snputc
    printf1.o(i.__0vsprintf$1) refers to printf1.o(i._printf_core) for _printf_core
    printf1.o(i.__0vsprintf$1) refers to printf1.o(i._sputc) for _sputc
    printf1.o(i._printf_core) refers to uidiv.o(.text) for __aeabi_uidivmod
    printf2.o(i.__0fprintf$2) refers to printf2.o(i._printf_core) for _printf_core
    printf2.o(i.__0fprintf$2) refers to hw_uart.o(i.fputc) for fputc
    printf2.o(i.__0printf$2) refers to printf2.o(i._printf_core) for _printf_core
    printf2.o(i.__0printf$2) refers to hw_uart.o(i.fputc) for fputc
    printf2.o(i.__0printf$2) refers to stdout.o(.data) for __stdout
    printf2.o(i.__0snprintf$2) refers to printf2.o(i._printf_core) for _printf_core
    printf2.o(i.__0snprintf$2) refers to printf2.o(i._snputc) for _snputc
    printf2.o(i.__0sprintf$2) refers to printf2.o(i._printf_core) for _printf_core
    printf2.o(i.__0sprintf$2) refers to printf2.o(i._sputc) for _sputc
    printf2.o(i.__0vfprintf$2) refers to printf2.o(i._printf_core) for _printf_core
    printf2.o(i.__0vfprintf$2) refers to hw_uart.o(i.fputc) for fputc
    printf2.o(i.__0vprintf$2) refers to printf2.o(i._printf_core) for _printf_core
    printf2.o(i.__0vprintf$2) refers to hw_uart.o(i.fputc) for fputc
    printf2.o(i.__0vprintf$2) refers to stdout.o(.data) for __stdout
    printf2.o(i.__0vsnprintf$2) refers to printf2.o(i._printf_core) for _printf_core
    printf2.o(i.__0vsnprintf$2) refers to printf2.o(i._snputc) for _snputc
    printf2.o(i.__0vsprintf$2) refers to printf2.o(i._printf_core) for _printf_core
    printf2.o(i.__0vsprintf$2) refers to printf2.o(i._sputc) for _sputc
    printf3.o(i.__0fprintf$3) refers to printf3.o(i._printf_core) for _printf_core
    printf3.o(i.__0fprintf$3) refers to hw_uart.o(i.fputc) for fputc
    printf3.o(i.__0printf$3) refers to printf3.o(i._printf_core) for _printf_core
    printf3.o(i.__0printf$3) refers to hw_uart.o(i.fputc) for fputc
    printf3.o(i.__0printf$3) refers to stdout.o(.data) for __stdout
    printf3.o(i.__0snprintf$3) refers to printf3.o(i._printf_core) for _printf_core
    printf3.o(i.__0snprintf$3) refers to printf3.o(i._snputc) for _snputc
    printf3.o(i.__0sprintf$3) refers to printf3.o(i._printf_core) for _printf_core
    printf3.o(i.__0sprintf$3) refers to printf3.o(i._sputc) for _sputc
    printf3.o(i.__0vfprintf$3) refers to printf3.o(i._printf_core) for _printf_core
    printf3.o(i.__0vfprintf$3) refers to hw_uart.o(i.fputc) for fputc
    printf3.o(i.__0vprintf$3) refers to printf3.o(i._printf_core) for _printf_core
    printf3.o(i.__0vprintf$3) refers to hw_uart.o(i.fputc) for fputc
    printf3.o(i.__0vprintf$3) refers to stdout.o(.data) for __stdout
    printf3.o(i.__0vsnprintf$3) refers to printf3.o(i._printf_core) for _printf_core
    printf3.o(i.__0vsnprintf$3) refers to printf3.o(i._snputc) for _snputc
    printf3.o(i.__0vsprintf$3) refers to printf3.o(i._printf_core) for _printf_core
    printf3.o(i.__0vsprintf$3) refers to printf3.o(i._sputc) for _sputc
    printf3.o(i._printf_core) refers to uidiv.o(.text) for __aeabi_uidivmod
    printf4.o(i.__0fprintf$4) refers to printf4.o(i._printf_core) for _printf_core
    printf4.o(i.__0fprintf$4) refers to hw_uart.o(i.fputc) for fputc
    printf4.o(i.__0printf$4) refers to printf4.o(i._printf_core) for _printf_core
    printf4.o(i.__0printf$4) refers to hw_uart.o(i.fputc) for fputc
    printf4.o(i.__0printf$4) refers to stdout.o(.data) for __stdout
    printf4.o(i.__0snprintf$4) refers to printf4.o(i._printf_core) for _printf_core
    printf4.o(i.__0snprintf$4) refers to printf4.o(i._snputc) for _snputc
    printf4.o(i.__0sprintf$4) refers to printf4.o(i._printf_core) for _printf_core
    printf4.o(i.__0sprintf$4) refers to printf4.o(i._sputc) for _sputc
    printf4.o(i.__0vfprintf$4) refers to printf4.o(i._printf_core) for _printf_core
    printf4.o(i.__0vfprintf$4) refers to hw_uart.o(i.fputc) for fputc
    printf4.o(i.__0vprintf$4) refers to printf4.o(i._printf_core) for _printf_core
    printf4.o(i.__0vprintf$4) refers to hw_uart.o(i.fputc) for fputc
    printf4.o(i.__0vprintf$4) refers to stdout.o(.data) for __stdout
    printf4.o(i.__0vsnprintf$4) refers to printf4.o(i._printf_core) for _printf_core
    printf4.o(i.__0vsnprintf$4) refers to printf4.o(i._snputc) for _snputc
    printf4.o(i.__0vsprintf$4) refers to printf4.o(i._printf_core) for _printf_core
    printf4.o(i.__0vsprintf$4) refers to printf4.o(i._sputc) for _sputc
    printf4.o(i._printf_core) refers to uldiv.o(.text) for __aeabi_uldivmod
    printf5.o(i.__0fprintf$5) refers to printf5.o(i._printf_core) for _printf_core
    printf5.o(i.__0fprintf$5) refers to hw_uart.o(i.fputc) for fputc
    printf5.o(i.__0printf$5) refers to printf5.o(i._printf_core) for _printf_core
    printf5.o(i.__0printf$5) refers to hw_uart.o(i.fputc) for fputc
    printf5.o(i.__0printf$5) refers to stdout.o(.data) for __stdout
    printf5.o(i.__0snprintf$5) refers to printf5.o(i._printf_core) for _printf_core
    printf5.o(i.__0snprintf$5) refers to printf5.o(i._snputc) for _snputc
    printf5.o(i.__0sprintf$5) refers to printf5.o(i._printf_core) for _printf_core
    printf5.o(i.__0sprintf$5) refers to printf5.o(i._sputc) for _sputc
    printf5.o(i.__0vfprintf$5) refers to printf5.o(i._printf_core) for _printf_core
    printf5.o(i.__0vfprintf$5) refers to hw_uart.o(i.fputc) for fputc
    printf5.o(i.__0vprintf$5) refers to printf5.o(i._printf_core) for _printf_core
    printf5.o(i.__0vprintf$5) refers to hw_uart.o(i.fputc) for fputc
    printf5.o(i.__0vprintf$5) refers to stdout.o(.data) for __stdout
    printf5.o(i.__0vsnprintf$5) refers to printf5.o(i._printf_core) for _printf_core
    printf5.o(i.__0vsnprintf$5) refers to printf5.o(i._snputc) for _snputc
    printf5.o(i.__0vsprintf$5) refers to printf5.o(i._printf_core) for _printf_core
    printf5.o(i.__0vsprintf$5) refers to printf5.o(i._sputc) for _sputc
    printf5.o(i._printf_core) refers to uldiv.o(.text) for __aeabi_uldivmod
    printf6.o(i.__0fprintf$6) refers to printf6.o(i._printf_core) for _printf_core
    printf6.o(i.__0fprintf$6) refers to hw_uart.o(i.fputc) for fputc
    printf6.o(i.__0printf$6) refers to printf6.o(i._printf_core) for _printf_core
    printf6.o(i.__0printf$6) refers to hw_uart.o(i.fputc) for fputc
    printf6.o(i.__0printf$6) refers to stdout.o(.data) for __stdout
    printf6.o(i.__0snprintf$6) refers to printf6.o(i._printf_core) for _printf_core
    printf6.o(i.__0snprintf$6) refers to printf6.o(i._snputc) for _snputc
    printf6.o(i.__0sprintf$6) refers to printf6.o(i._printf_core) for _printf_core
    printf6.o(i.__0sprintf$6) refers to printf6.o(i._sputc) for _sputc
    printf6.o(i.__0vfprintf$6) refers to printf6.o(i._printf_core) for _printf_core
    printf6.o(i.__0vfprintf$6) refers to hw_uart.o(i.fputc) for fputc
    printf6.o(i.__0vprintf$6) refers to printf6.o(i._printf_core) for _printf_core
    printf6.o(i.__0vprintf$6) refers to hw_uart.o(i.fputc) for fputc
    printf6.o(i.__0vprintf$6) refers to stdout.o(.data) for __stdout
    printf6.o(i.__0vsnprintf$6) refers to printf6.o(i._printf_core) for _printf_core
    printf6.o(i.__0vsnprintf$6) refers to printf6.o(i._snputc) for _snputc
    printf6.o(i.__0vsprintf$6) refers to printf6.o(i._printf_core) for _printf_core
    printf6.o(i.__0vsprintf$6) refers to printf6.o(i._sputc) for _sputc
    printf6.o(i._printf_core) refers to printf6.o(i._printf_pre_padding) for _printf_pre_padding
    printf6.o(i._printf_core) refers to uidiv.o(.text) for __aeabi_uidivmod
    printf6.o(i._printf_core) refers to printf6.o(i._printf_post_padding) for _printf_post_padding
    printf7.o(i.__0fprintf$7) refers to printf7.o(i._printf_core) for _printf_core
    printf7.o(i.__0fprintf$7) refers to hw_uart.o(i.fputc) for fputc
    printf7.o(i.__0printf$7) refers to printf7.o(i._printf_core) for _printf_core
    printf7.o(i.__0printf$7) refers to hw_uart.o(i.fputc) for fputc
    printf7.o(i.__0printf$7) refers to stdout.o(.data) for __stdout
    printf7.o(i.__0snprintf$7) refers to printf7.o(i._printf_core) for _printf_core
    printf7.o(i.__0snprintf$7) refers to printf7.o(i._snputc) for _snputc
    printf7.o(i.__0sprintf$7) refers to printf7.o(i._printf_core) for _printf_core
    printf7.o(i.__0sprintf$7) refers to printf7.o(i._sputc) for _sputc
    printf7.o(i.__0vfprintf$7) refers to printf7.o(i._printf_core) for _printf_core
    printf7.o(i.__0vfprintf$7) refers to hw_uart.o(i.fputc) for fputc
    printf7.o(i.__0vprintf$7) refers to printf7.o(i._printf_core) for _printf_core
    printf7.o(i.__0vprintf$7) refers to hw_uart.o(i.fputc) for fputc
    printf7.o(i.__0vprintf$7) refers to stdout.o(.data) for __stdout
    printf7.o(i.__0vsnprintf$7) refers to printf7.o(i._printf_core) for _printf_core
    printf7.o(i.__0vsnprintf$7) refers to printf7.o(i._snputc) for _snputc
    printf7.o(i.__0vsprintf$7) refers to printf7.o(i._printf_core) for _printf_core
    printf7.o(i.__0vsprintf$7) refers to printf7.o(i._sputc) for _sputc
    printf7.o(i._printf_core) refers to printf7.o(i._printf_pre_padding) for _printf_pre_padding
    printf7.o(i._printf_core) refers to uldiv.o(.text) for __aeabi_uldivmod
    printf7.o(i._printf_core) refers to printf7.o(i._printf_post_padding) for _printf_post_padding
    printf8.o(i.__0fprintf$8) refers to printf8.o(i._printf_core) for _printf_core
    printf8.o(i.__0fprintf$8) refers to hw_uart.o(i.fputc) for fputc
    printf8.o(i.__0printf$8) refers to printf8.o(i._printf_core) for _printf_core
    printf8.o(i.__0printf$8) refers to hw_uart.o(i.fputc) for fputc
    printf8.o(i.__0printf$8) refers to stdout.o(.data) for __stdout
    printf8.o(i.__0snprintf$8) refers to printf8.o(i._printf_core) for _printf_core
    printf8.o(i.__0snprintf$8) refers to printf8.o(i._snputc) for _snputc
    printf8.o(i.__0sprintf$8) refers to printf8.o(i._printf_core) for _printf_core
    printf8.o(i.__0sprintf$8) refers to printf8.o(i._sputc) for _sputc
    printf8.o(i.__0vfprintf$8) refers to printf8.o(i._printf_core) for _printf_core
    printf8.o(i.__0vfprintf$8) refers to hw_uart.o(i.fputc) for fputc
    printf8.o(i.__0vprintf$8) refers to printf8.o(i._printf_core) for _printf_core
    printf8.o(i.__0vprintf$8) refers to hw_uart.o(i.fputc) for fputc
    printf8.o(i.__0vprintf$8) refers to stdout.o(.data) for __stdout
    printf8.o(i.__0vsnprintf$8) refers to printf8.o(i._printf_core) for _printf_core
    printf8.o(i.__0vsnprintf$8) refers to printf8.o(i._snputc) for _snputc
    printf8.o(i.__0vsprintf$8) refers to printf8.o(i._printf_core) for _printf_core
    printf8.o(i.__0vsprintf$8) refers to printf8.o(i._sputc) for _sputc
    printf8.o(i._printf_core) refers to printf8.o(i._printf_pre_padding) for _printf_pre_padding
    printf8.o(i._printf_core) refers to uldiv.o(.text) for __aeabi_uldivmod
    printf8.o(i._printf_core) refers to printf8.o(i._printf_post_padding) for _printf_post_padding
    printfa.o(i.__0fprintf) refers (Special) to iusefp.o(.text) for __I$use$fp
    printfa.o(i.__0fprintf) refers to printfa.o(i._printf_core) for _printf_core
    printfa.o(i.__0fprintf) refers to hw_uart.o(i.fputc) for fputc
    printfa.o(i.__0printf) refers (Special) to iusefp.o(.text) for __I$use$fp
    printfa.o(i.__0printf) refers to printfa.o(i._printf_core) for _printf_core
    printfa.o(i.__0printf) refers to hw_uart.o(i.fputc) for fputc
    printfa.o(i.__0printf) refers to stdout.o(.data) for __stdout
    printfa.o(i.__0snprintf) refers (Special) to iusefp.o(.text) for __I$use$fp
    printfa.o(i.__0snprintf) refers to printfa.o(i._printf_core) for _printf_core
    printfa.o(i.__0snprintf) refers to printfa.o(i._snputc) for _snputc
    printfa.o(i.__0sprintf) refers (Special) to iusefp.o(.text) for __I$use$fp
    printfa.o(i.__0sprintf) refers to printfa.o(i._printf_core) for _printf_core
    printfa.o(i.__0sprintf) refers to printfa.o(i._sputc) for _sputc
    printfa.o(i.__0vfprintf) refers (Special) to iusefp.o(.text) for __I$use$fp
    printfa.o(i.__0vfprintf) refers to printfa.o(i._printf_core) for _printf_core
    printfa.o(i.__0vfprintf) refers to hw_uart.o(i.fputc) for fputc
    printfa.o(i.__0vprintf) refers (Special) to iusefp.o(.text) for __I$use$fp
    printfa.o(i.__0vprintf) refers to printfa.o(i._printf_core) for _printf_core
    printfa.o(i.__0vprintf) refers to hw_uart.o(i.fputc) for fputc
    printfa.o(i.__0vprintf) refers to stdout.o(.data) for __stdout
    printfa.o(i.__0vsnprintf) refers (Special) to iusefp.o(.text) for __I$use$fp
    printfa.o(i.__0vsnprintf) refers to printfa.o(i._printf_core) for _printf_core
    printfa.o(i.__0vsnprintf) refers to printfa.o(i._snputc) for _snputc
    printfa.o(i.__0vsprintf) refers (Special) to iusefp.o(.text) for __I$use$fp
    printfa.o(i.__0vsprintf) refers to printfa.o(i._printf_core) for _printf_core
    printfa.o(i.__0vsprintf) refers to printfa.o(i._sputc) for _sputc
    printfa.o(i._fp_digits) refers (Special) to iusefp.o(.text) for __I$use$fp
    printfa.o(i._fp_digits) refers to dmul.o(.text) for __aeabi_dmul
    printfa.o(i._fp_digits) refers to ddiv.o(.text) for __aeabi_ddiv
    printfa.o(i._fp_digits) refers to cdrcmple.o(.text) for __aeabi_cdrcmple
    printfa.o(i._fp_digits) refers to dadd.o(.text) for __aeabi_dadd
    printfa.o(i._fp_digits) refers to dfixul.o(.text) for __aeabi_d2ulz
    printfa.o(i._fp_digits) refers to uldiv.o(.text) for __aeabi_uldivmod
    printfa.o(i._printf_core) refers (Special) to iusefp.o(.text) for __I$use$fp
    printfa.o(i._printf_core) refers to printfa.o(i._printf_pre_padding) for _printf_pre_padding
    printfa.o(i._printf_core) refers to uldiv.o(.text) for __aeabi_uldivmod
    printfa.o(i._printf_core) refers to printfa.o(i._printf_post_padding) for _printf_post_padding
    printfa.o(i._printf_core) refers to printfa.o(i._fp_digits) for _fp_digits
    printfa.o(i._printf_core) refers to uidiv.o(.text) for __aeabi_uidivmod
    printfa.o(i._printf_post_padding) refers (Special) to iusefp.o(.text) for __I$use$fp
    printfa.o(i._printf_pre_padding) refers (Special) to iusefp.o(.text) for __I$use$fp
    printfa.o(i._snputc) refers (Special) to iusefp.o(.text) for __I$use$fp
    printfa.o(i._sputc) refers (Special) to iusefp.o(.text) for __I$use$fp
    fadd.o(.text) refers (Special) to iusefp.o(.text) for __I$use$fp
    fadd.o(.text) refers to fepilogue.o(.text) for _float_epilogue
    fmul.o(.text) refers (Special) to iusefp.o(.text) for __I$use$fp
    fdiv.o(.text) refers (Special) to iusefp.o(.text) for __I$use$fp
    fdiv.o(.text) refers to fepilogue.o(.text) for _float_round
    dadd.o(.text) refers (Special) to iusefp.o(.text) for __I$use$fp
    dadd.o(.text) refers to llshl.o(.text) for __aeabi_llsl
    dadd.o(.text) refers to llsshr.o(.text) for __aeabi_lasr
    dadd.o(.text) refers to depilogue.o(.text) for _double_epilogue
    dmul.o(.text) refers (Special) to iusefp.o(.text) for __I$use$fp
    dmul.o(.text) refers to depilogue.o(.text) for _double_epilogue
    ddiv.o(.text) refers (Special) to iusefp.o(.text) for __I$use$fp
    ddiv.o(.text) refers to depilogue.o(.text) for _double_round
    fflti.o(.text) refers (Special) to iusefp.o(.text) for __I$use$fp
    fflti.o(.text) refers to fepilogue.o(.text) for _float_epilogue
    ffltui.o(.text) refers (Special) to iusefp.o(.text) for __I$use$fp
    ffltui.o(.text) refers to fepilogue.o(.text) for _float_epilogue
    ffixui.o(.text) refers (Special) to iusefp.o(.text) for __I$use$fp
    f2d.o(.text) refers (Special) to iusefp.o(.text) for __I$use$fp
    cdrcmple.o(.text) refers (Special) to iusefp.o(.text) for __I$use$fp
    d2f.o(.text) refers (Special) to iusefp.o(.text) for __I$use$fp
    d2f.o(.text) refers to fepilogue.o(.text) for _float_round
    entry2.o(.ARM.Collect$$$$00000001) refers to entry2.o(.ARM.Collect$$$$00002712) for __lit__00000000
    entry2.o(.ARM.Collect$$$$00002712) refers to startup_gd32f10x_md.o(STACK) for __initial_sp
    entry2.o(__vectab_stack_and_reset_area) refers to startup_gd32f10x_md.o(STACK) for __initial_sp
    entry2.o(__vectab_stack_and_reset_area) refers to entry.o(.ARM.Collect$$$$00000000) for __main
    entry5.o(.ARM.Collect$$$$00000004) refers to init.o(.text) for __scatterload
    entry9a.o(.ARM.Collect$$$$0000000B) refers to main.o(i.main) for main
    entry9b.o(.ARM.Collect$$$$0000000C) refers to main.o(i.main) for main
    uldiv.o(.text) refers to llushr.o(.text) for __aeabi_llsr
    uldiv.o(.text) refers to llshl.o(.text) for __aeabi_llsl
    localtime_w.o(.text) refers to localtime_i.o(.text) for _localtime
    localtime_w.o(.text) refers to localtime_w.o(.bss) for .bss
    localtime_i.o(.text) refers to localtime_i.o(.constdata) for .constdata
    depilogue.o(.text) refers to llshl.o(.text) for __aeabi_llsl
    depilogue.o(.text) refers to llushr.o(.text) for __aeabi_llsr
    dfixul.o(.text) refers to llushr.o(.text) for __aeabi_llsr
    dfixul.o(.text) refers to llshl.o(.text) for __aeabi_llsl
    init.o(.text) refers to entry5.o(.ARM.Collect$$$$00000004) for __main_after_scatterload


==============================================================================

Removing Unused input sections from the image.

    Removing system_gd32f10x.o(.rev16_text), (4 bytes).
    Removing system_gd32f10x.o(.revsh_text), (4 bytes).
    Removing system_gd32f10x.o(i.SystemCoreClockUpdate), (228 bytes).
    Removing startup_gd32f10x_md.o(HEAP), (8192 bytes).
    Removing gd32f10x_adc.o(.rev16_text), (4 bytes).
    Removing gd32f10x_adc.o(.revsh_text), (4 bytes).
    Removing gd32f10x_adc.o(i.adc_calibration_enable), (42 bytes).
    Removing gd32f10x_adc.o(i.adc_channel_length_config), (70 bytes).
    Removing gd32f10x_adc.o(i.adc_data_alignment_config), (22 bytes).
    Removing gd32f10x_adc.o(i.adc_deinit), (88 bytes).
    Removing gd32f10x_adc.o(i.adc_disable), (10 bytes).
    Removing gd32f10x_adc.o(i.adc_discontinuous_mode_config), (76 bytes).
    Removing gd32f10x_adc.o(i.adc_dma_mode_disable), (10 bytes).
    Removing gd32f10x_adc.o(i.adc_dma_mode_enable), (10 bytes).
    Removing gd32f10x_adc.o(i.adc_enable), (18 bytes).
    Removing gd32f10x_adc.o(i.adc_external_trigger_config), (62 bytes).
    Removing gd32f10x_adc.o(i.adc_external_trigger_source_config), (48 bytes).
    Removing gd32f10x_adc.o(i.adc_flag_clear), (8 bytes).
    Removing gd32f10x_adc.o(i.adc_flag_get), (14 bytes).
    Removing gd32f10x_adc.o(i.adc_inserted_channel_config), (120 bytes).
    Removing gd32f10x_adc.o(i.adc_inserted_channel_offset_config), (36 bytes).
    Removing gd32f10x_adc.o(i.adc_inserted_data_read), (46 bytes).
    Removing gd32f10x_adc.o(i.adc_inserted_software_startconv_flag_get), (16 bytes).
    Removing gd32f10x_adc.o(i.adc_interrupt_disable), (44 bytes).
    Removing gd32f10x_adc.o(i.adc_interrupt_enable), (44 bytes).
    Removing gd32f10x_adc.o(i.adc_interrupt_flag_clear), (8 bytes).
    Removing gd32f10x_adc.o(i.adc_interrupt_flag_get), (88 bytes).
    Removing gd32f10x_adc.o(i.adc_mode_config), (28 bytes).
    Removing gd32f10x_adc.o(i.adc_regular_channel_config), (172 bytes).
    Removing gd32f10x_adc.o(i.adc_regular_data_read), (8 bytes).
    Removing gd32f10x_adc.o(i.adc_regular_software_startconv_flag_get), (16 bytes).
    Removing gd32f10x_adc.o(i.adc_software_trigger_enable), (30 bytes).
    Removing gd32f10x_adc.o(i.adc_special_function_config), (90 bytes).
    Removing gd32f10x_adc.o(i.adc_sync_mode_convert_value_read), (12 bytes).
    Removing gd32f10x_adc.o(i.adc_tempsensor_vrefint_disable), (20 bytes).
    Removing gd32f10x_adc.o(i.adc_tempsensor_vrefint_enable), (20 bytes).
    Removing gd32f10x_adc.o(i.adc_watchdog_disable), (16 bytes).
    Removing gd32f10x_adc.o(i.adc_watchdog_group_channel_enable), (64 bytes).
    Removing gd32f10x_adc.o(i.adc_watchdog_single_channel_enable), (32 bytes).
    Removing gd32f10x_adc.o(i.adc_watchdog_threshold_config), (14 bytes).
    Removing gd32f10x_bkp.o(.rev16_text), (4 bytes).
    Removing gd32f10x_bkp.o(.revsh_text), (4 bytes).
    Removing gd32f10x_bkp.o(i.bkp_data_read), (56 bytes).
    Removing gd32f10x_bkp.o(i.bkp_data_write), (52 bytes).
    Removing gd32f10x_bkp.o(i.bkp_deinit), (12 bytes).
    Removing gd32f10x_bkp.o(i.bkp_flag_clear), (20 bytes).
    Removing gd32f10x_bkp.o(i.bkp_flag_get), (24 bytes).
    Removing gd32f10x_bkp.o(i.bkp_interrupt_disable), (20 bytes).
    Removing gd32f10x_bkp.o(i.bkp_interrupt_enable), (20 bytes).
    Removing gd32f10x_bkp.o(i.bkp_interrupt_flag_clear), (20 bytes).
    Removing gd32f10x_bkp.o(i.bkp_interrupt_flag_get), (24 bytes).
    Removing gd32f10x_bkp.o(i.bkp_rtc_calibration_output_disable), (20 bytes).
    Removing gd32f10x_bkp.o(i.bkp_rtc_calibration_output_enable), (20 bytes).
    Removing gd32f10x_bkp.o(i.bkp_rtc_calibration_value_set), (28 bytes).
    Removing gd32f10x_bkp.o(i.bkp_rtc_output_select), (28 bytes).
    Removing gd32f10x_bkp.o(i.bkp_rtc_signal_output_disable), (20 bytes).
    Removing gd32f10x_bkp.o(i.bkp_rtc_signal_output_enable), (20 bytes).
    Removing gd32f10x_bkp.o(i.bkp_tamper_active_level_set), (28 bytes).
    Removing gd32f10x_bkp.o(i.bkp_tamper_detection_disable), (20 bytes).
    Removing gd32f10x_bkp.o(i.bkp_tamper_detection_enable), (20 bytes).
    Removing gd32f10x_can.o(.rev16_text), (4 bytes).
    Removing gd32f10x_can.o(.revsh_text), (4 bytes).
    Removing gd32f10x_can.o(i.can1_filter_start_bank), (56 bytes).
    Removing gd32f10x_can.o(i.can_debug_freeze_disable), (32 bytes).
    Removing gd32f10x_can.o(i.can_debug_freeze_enable), (32 bytes).
    Removing gd32f10x_can.o(i.can_deinit), (32 bytes).
    Removing gd32f10x_can.o(i.can_error_get), (12 bytes).
    Removing gd32f10x_can.o(i.can_fifo_release), (32 bytes).
    Removing gd32f10x_can.o(i.can_filter_init), (272 bytes).
    Removing gd32f10x_can.o(i.can_flag_clear), (52 bytes).
    Removing gd32f10x_can.o(i.can_flag_get), (30 bytes).
    Removing gd32f10x_can.o(i.can_init), (290 bytes).
    Removing gd32f10x_can.o(i.can_interrupt_disable), (8 bytes).
    Removing gd32f10x_can.o(i.can_interrupt_enable), (8 bytes).
    Removing gd32f10x_can.o(i.can_interrupt_flag_clear), (56 bytes).
    Removing gd32f10x_can.o(i.can_interrupt_flag_get), (116 bytes).
    Removing gd32f10x_can.o(i.can_message_receive), (228 bytes).
    Removing gd32f10x_can.o(i.can_message_transmit), (336 bytes).
    Removing gd32f10x_can.o(i.can_receive_error_number_get), (8 bytes).
    Removing gd32f10x_can.o(i.can_receive_message_length_get), (26 bytes).
    Removing gd32f10x_can.o(i.can_struct_para_init), (158 bytes).
    Removing gd32f10x_can.o(i.can_time_trigger_mode_disable), (48 bytes).
    Removing gd32f10x_can.o(i.can_time_trigger_mode_enable), (48 bytes).
    Removing gd32f10x_can.o(i.can_transmission_stop), (80 bytes).
    Removing gd32f10x_can.o(i.can_transmit_error_number_get), (10 bytes).
    Removing gd32f10x_can.o(i.can_transmit_states), (124 bytes).
    Removing gd32f10x_can.o(i.can_wakeup), (48 bytes).
    Removing gd32f10x_can.o(i.can_working_mode_set), (168 bytes).
    Removing gd32f10x_crc.o(.rev16_text), (4 bytes).
    Removing gd32f10x_crc.o(.revsh_text), (4 bytes).
    Removing gd32f10x_crc.o(i.crc_block_data_calculate), (36 bytes).
    Removing gd32f10x_crc.o(i.crc_data_register_read), (12 bytes).
    Removing gd32f10x_crc.o(i.crc_data_register_reset), (20 bytes).
    Removing gd32f10x_crc.o(i.crc_deinit), (24 bytes).
    Removing gd32f10x_crc.o(i.crc_free_data_register_read), (12 bytes).
    Removing gd32f10x_crc.o(i.crc_free_data_register_write), (12 bytes).
    Removing gd32f10x_crc.o(i.crc_single_data_calculate), (16 bytes).
    Removing gd32f10x_dac.o(.rev16_text), (4 bytes).
    Removing gd32f10x_dac.o(.revsh_text), (4 bytes).
    Removing gd32f10x_dac.o(i.dac_concurrent_data_set), (64 bytes).
    Removing gd32f10x_dac.o(i.dac_concurrent_disable), (24 bytes).
    Removing gd32f10x_dac.o(i.dac_concurrent_enable), (24 bytes).
    Removing gd32f10x_dac.o(i.dac_concurrent_output_buffer_disable), (24 bytes).
    Removing gd32f10x_dac.o(i.dac_concurrent_output_buffer_enable), (24 bytes).
    Removing gd32f10x_dac.o(i.dac_concurrent_software_trigger_disable), (20 bytes).
    Removing gd32f10x_dac.o(i.dac_concurrent_software_trigger_enable), (20 bytes).
    Removing gd32f10x_dac.o(i.dac_data_set), (88 bytes).
    Removing gd32f10x_dac.o(i.dac_deinit), (20 bytes).
    Removing gd32f10x_dac.o(i.dac_disable), (36 bytes).
    Removing gd32f10x_dac.o(i.dac_dma_disable), (36 bytes).
    Removing gd32f10x_dac.o(i.dac_dma_enable), (36 bytes).
    Removing gd32f10x_dac.o(i.dac_enable), (36 bytes).
    Removing gd32f10x_dac.o(i.dac_lfsr_noise_config), (52 bytes).
    Removing gd32f10x_dac.o(i.dac_output_buffer_disable), (36 bytes).
    Removing gd32f10x_dac.o(i.dac_output_buffer_enable), (36 bytes).
    Removing gd32f10x_dac.o(i.dac_output_value_get), (28 bytes).
    Removing gd32f10x_dac.o(i.dac_software_trigger_disable), (36 bytes).
    Removing gd32f10x_dac.o(i.dac_software_trigger_enable), (36 bytes).
    Removing gd32f10x_dac.o(i.dac_triangle_noise_config), (52 bytes).
    Removing gd32f10x_dac.o(i.dac_trigger_disable), (36 bytes).
    Removing gd32f10x_dac.o(i.dac_trigger_enable), (36 bytes).
    Removing gd32f10x_dac.o(i.dac_trigger_source_config), (52 bytes).
    Removing gd32f10x_dac.o(i.dac_wave_bit_width_config), (52 bytes).
    Removing gd32f10x_dac.o(i.dac_wave_mode_config), (52 bytes).
    Removing gd32f10x_dbg.o(.rev16_text), (4 bytes).
    Removing gd32f10x_dbg.o(.revsh_text), (4 bytes).
    Removing gd32f10x_dbg.o(i.dbg_id_get), (12 bytes).
    Removing gd32f10x_dbg.o(i.dbg_low_power_disable), (16 bytes).
    Removing gd32f10x_dbg.o(i.dbg_low_power_enable), (16 bytes).
    Removing gd32f10x_dbg.o(i.dbg_periph_disable), (16 bytes).
    Removing gd32f10x_dbg.o(i.dbg_periph_enable), (16 bytes).
    Removing gd32f10x_dbg.o(i.dbg_trace_pin_disable), (20 bytes).
    Removing gd32f10x_dbg.o(i.dbg_trace_pin_enable), (20 bytes).
    Removing gd32f10x_dbg.o(i.dbg_trace_pin_mode_set), (28 bytes).
    Removing gd32f10x_dma.o(.rev16_text), (4 bytes).
    Removing gd32f10x_dma.o(.revsh_text), (4 bytes).
    Removing gd32f10x_dma.o(i.dma_channel_disable), (50 bytes).
    Removing gd32f10x_dma.o(i.dma_channel_enable), (50 bytes).
    Removing gd32f10x_dma.o(i.dma_circulation_disable), (50 bytes).
    Removing gd32f10x_dma.o(i.dma_circulation_enable), (50 bytes).
    Removing gd32f10x_dma.o(i.dma_deinit), (112 bytes).
    Removing gd32f10x_dma.o(i.dma_flag_clear), (16 bytes).
    Removing gd32f10x_dma.o(i.dma_flag_get), (24 bytes).
    Removing gd32f10x_dma.o(i.dma_init), (302 bytes).
    Removing gd32f10x_dma.o(i.dma_interrupt_disable), (50 bytes).
    Removing gd32f10x_dma.o(i.dma_interrupt_enable), (50 bytes).
    Removing gd32f10x_dma.o(i.dma_interrupt_flag_clear), (16 bytes).
    Removing gd32f10x_dma.o(i.dma_interrupt_flag_get), (130 bytes).
    Removing gd32f10x_dma.o(i.dma_memory_address_config), (36 bytes).
    Removing gd32f10x_dma.o(i.dma_memory_increase_disable), (50 bytes).
    Removing gd32f10x_dma.o(i.dma_memory_increase_enable), (50 bytes).
    Removing gd32f10x_dma.o(i.dma_memory_to_memory_disable), (50 bytes).
    Removing gd32f10x_dma.o(i.dma_memory_to_memory_enable), (50 bytes).
    Removing gd32f10x_dma.o(i.dma_memory_width_config), (58 bytes).
    Removing gd32f10x_dma.o(i.dma_periph_address_config), (36 bytes).
    Removing gd32f10x_dma.o(i.dma_periph_and_channel_check), (24 bytes).
    Removing gd32f10x_dma.o(i.dma_periph_increase_disable), (50 bytes).
    Removing gd32f10x_dma.o(i.dma_periph_increase_enable), (50 bytes).
    Removing gd32f10x_dma.o(i.dma_periph_width_config), (58 bytes).
    Removing gd32f10x_dma.o(i.dma_priority_config), (58 bytes).
    Removing gd32f10x_dma.o(i.dma_struct_para_init), (22 bytes).
    Removing gd32f10x_dma.o(i.dma_transfer_direction_config), (84 bytes).
    Removing gd32f10x_dma.o(i.dma_transfer_number_config), (38 bytes).
    Removing gd32f10x_dma.o(i.dma_transfer_number_get), (34 bytes).
    Removing gd32f10x_enet.o(.rev16_text), (4 bytes).
    Removing gd32f10x_enet.o(.revsh_text), (4 bytes).
    Removing gd32f10x_exmc.o(.rev16_text), (4 bytes).
    Removing gd32f10x_exmc.o(.revsh_text), (4 bytes).
    Removing gd32f10x_exmc.o(i.exmc_ecc_get), (12 bytes).
    Removing gd32f10x_exmc.o(i.exmc_flag_clear), (20 bytes).
    Removing gd32f10x_exmc.o(i.exmc_flag_get), (28 bytes).
    Removing gd32f10x_exmc.o(i.exmc_interrupt_disable), (20 bytes).
    Removing gd32f10x_exmc.o(i.exmc_interrupt_enable), (20 bytes).
    Removing gd32f10x_exmc.o(i.exmc_interrupt_flag_clear), (22 bytes).
    Removing gd32f10x_exmc.o(i.exmc_interrupt_flag_get), (38 bytes).
    Removing gd32f10x_exmc.o(i.exmc_nand_deinit), (42 bytes).
    Removing gd32f10x_exmc.o(i.exmc_nand_disable), (22 bytes).
    Removing gd32f10x_exmc.o(i.exmc_nand_ecc_config), (48 bytes).
    Removing gd32f10x_exmc.o(i.exmc_nand_enable), (22 bytes).
    Removing gd32f10x_exmc.o(i.exmc_nand_init), (174 bytes).
    Removing gd32f10x_exmc.o(i.exmc_nand_struct_para_init), (54 bytes).
    Removing gd32f10x_exmc.o(i.exmc_norsram_deinit), (52 bytes).
    Removing gd32f10x_exmc.o(i.exmc_norsram_disable), (22 bytes).
    Removing gd32f10x_exmc.o(i.exmc_norsram_enable), (22 bytes).
    Removing gd32f10x_exmc.o(i.exmc_norsram_init), (268 bytes).
    Removing gd32f10x_exmc.o(i.exmc_norsram_struct_para_init), (106 bytes).
    Removing gd32f10x_exmc.o(i.exmc_pccard_deinit), (40 bytes).
    Removing gd32f10x_exmc.o(i.exmc_pccard_disable), (24 bytes).
    Removing gd32f10x_exmc.o(i.exmc_pccard_enable), (24 bytes).
    Removing gd32f10x_exmc.o(i.exmc_pccard_init), (192 bytes).
    Removing gd32f10x_exmc.o(i.exmc_pccard_struct_para_init), (60 bytes).
    Removing gd32f10x_exti.o(.rev16_text), (4 bytes).
    Removing gd32f10x_exti.o(.revsh_text), (4 bytes).
    Removing gd32f10x_exti.o(i.exti_deinit), (28 bytes).
    Removing gd32f10x_exti.o(i.exti_event_disable), (16 bytes).
    Removing gd32f10x_exti.o(i.exti_event_enable), (16 bytes).
    Removing gd32f10x_exti.o(i.exti_flag_clear), (12 bytes).
    Removing gd32f10x_exti.o(i.exti_flag_get), (24 bytes).
    Removing gd32f10x_exti.o(i.exti_interrupt_disable), (16 bytes).
    Removing gd32f10x_exti.o(i.exti_interrupt_enable), (16 bytes).
    Removing gd32f10x_exti.o(i.exti_software_interrupt_disable), (16 bytes).
    Removing gd32f10x_exti.o(i.exti_software_interrupt_enable), (16 bytes).
    Removing gd32f10x_fmc.o(.rev16_text), (4 bytes).
    Removing gd32f10x_fmc.o(.revsh_text), (4 bytes).
    Removing gd32f10x_fmc.o(i.fmc_bank0_erase), (68 bytes).
    Removing gd32f10x_fmc.o(i.fmc_bank0_lock), (20 bytes).
    Removing gd32f10x_fmc.o(i.fmc_bank0_unlock), (36 bytes).
    Removing gd32f10x_fmc.o(i.fmc_bank1_erase), (68 bytes).
    Removing gd32f10x_fmc.o(i.fmc_bank1_lock), (20 bytes).
    Removing gd32f10x_fmc.o(i.fmc_bank1_unlock), (36 bytes).
    Removing gd32f10x_fmc.o(i.fmc_flag_get), (36 bytes).
    Removing gd32f10x_fmc.o(i.fmc_halfword_program), (192 bytes).
    Removing gd32f10x_fmc.o(i.fmc_interrupt_disable), (32 bytes).
    Removing gd32f10x_fmc.o(i.fmc_interrupt_enable), (32 bytes).
    Removing gd32f10x_fmc.o(i.fmc_interrupt_flag_clear), (32 bytes).
    Removing gd32f10x_fmc.o(i.fmc_interrupt_flag_get), (108 bytes).
    Removing gd32f10x_fmc.o(i.fmc_mass_erase), (196 bytes).
    Removing gd32f10x_fmc.o(i.fmc_wscnt_set), (24 bytes).
    Removing gd32f10x_fmc.o(i.ob_data_get), (16 bytes).
    Removing gd32f10x_fmc.o(i.ob_data_program), (68 bytes).
    Removing gd32f10x_fmc.o(i.ob_erase), (140 bytes).
    Removing gd32f10x_fmc.o(i.ob_lock), (20 bytes).
    Removing gd32f10x_fmc.o(i.ob_security_protection_config), (132 bytes).
    Removing gd32f10x_fmc.o(i.ob_spc_get), (24 bytes).
    Removing gd32f10x_fmc.o(i.ob_unlock), (48 bytes).
    Removing gd32f10x_fmc.o(i.ob_user_get), (16 bytes).
    Removing gd32f10x_fmc.o(i.ob_user_write), (96 bytes).
    Removing gd32f10x_fmc.o(i.ob_write_protection_enable), (168 bytes).
    Removing gd32f10x_fmc.o(i.ob_write_protection_get), (12 bytes).
    Removing gd32f10x_fwdgt.o(.rev16_text), (4 bytes).
    Removing gd32f10x_fwdgt.o(.revsh_text), (4 bytes).
    Removing gd32f10x_fwdgt.o(i.fwdgt_config), (104 bytes).
    Removing gd32f10x_fwdgt.o(i.fwdgt_counter_reload), (16 bytes).
    Removing gd32f10x_fwdgt.o(i.fwdgt_enable), (16 bytes).
    Removing gd32f10x_fwdgt.o(i.fwdgt_flag_get), (24 bytes).
    Removing gd32f10x_fwdgt.o(i.fwdgt_write_disable), (12 bytes).
    Removing gd32f10x_fwdgt.o(i.fwdgt_write_enable), (16 bytes).
    Removing gd32f10x_gpio.o(.rev16_text), (4 bytes).
    Removing gd32f10x_gpio.o(.revsh_text), (4 bytes).
    Removing gd32f10x_gpio.o(i.gpio_afio_deinit), (20 bytes).
    Removing gd32f10x_gpio.o(i.gpio_bit_reset), (4 bytes).
    Removing gd32f10x_gpio.o(i.gpio_bit_set), (4 bytes).
    Removing gd32f10x_gpio.o(i.gpio_bit_write), (10 bytes).
    Removing gd32f10x_gpio.o(i.gpio_deinit), (196 bytes).
    Removing gd32f10x_gpio.o(i.gpio_event_output_config), (28 bytes).
    Removing gd32f10x_gpio.o(i.gpio_event_output_disable), (20 bytes).
    Removing gd32f10x_gpio.o(i.gpio_event_output_enable), (20 bytes).
    Removing gd32f10x_gpio.o(i.gpio_input_port_get), (8 bytes).
    Removing gd32f10x_gpio.o(i.gpio_output_bit_get), (16 bytes).
    Removing gd32f10x_gpio.o(i.gpio_output_port_get), (8 bytes).
    Removing gd32f10x_gpio.o(i.gpio_pin_lock), (18 bytes).
    Removing gd32f10x_gpio.o(i.gpio_port_write), (4 bytes).
    Removing gd32f10x_i2c.o(.rev16_text), (4 bytes).
    Removing gd32f10x_i2c.o(.revsh_text), (4 bytes).
    Removing gd32f10x_i2c.o(i.i2c_ackpos_config), (22 bytes).
    Removing gd32f10x_i2c.o(i.i2c_deinit), (64 bytes).
    Removing gd32f10x_i2c.o(i.i2c_disable), (10 bytes).
    Removing gd32f10x_i2c.o(i.i2c_dma_enable), (16 bytes).
    Removing gd32f10x_i2c.o(i.i2c_dma_last_transfer_config), (16 bytes).
    Removing gd32f10x_i2c.o(i.i2c_dualaddr_disable), (10 bytes).
    Removing gd32f10x_i2c.o(i.i2c_dualaddr_enable), (12 bytes).
    Removing gd32f10x_i2c.o(i.i2c_interrupt_disable), (26 bytes).
    Removing gd32f10x_i2c.o(i.i2c_interrupt_enable), (26 bytes).
    Removing gd32f10x_i2c.o(i.i2c_interrupt_flag_clear), (44 bytes).
    Removing gd32f10x_i2c.o(i.i2c_interrupt_flag_get), (92 bytes).
    Removing gd32f10x_i2c.o(i.i2c_pec_enable), (16 bytes).
    Removing gd32f10x_i2c.o(i.i2c_pec_transfer_enable), (16 bytes).
    Removing gd32f10x_i2c.o(i.i2c_pec_value_get), (10 bytes).
    Removing gd32f10x_i2c.o(i.i2c_slave_response_to_gcall_config), (16 bytes).
    Removing gd32f10x_i2c.o(i.i2c_smbus_arp_enable), (16 bytes).
    Removing gd32f10x_i2c.o(i.i2c_smbus_issue_alert), (16 bytes).
    Removing gd32f10x_i2c.o(i.i2c_smbus_type_config), (24 bytes).
    Removing gd32f10x_i2c.o(i.i2c_software_reset_config), (16 bytes).
    Removing gd32f10x_i2c.o(i.i2c_stretch_scl_low_config), (16 bytes).
    Removing gd32f10x_misc.o(.rev16_text), (4 bytes).
    Removing gd32f10x_misc.o(.revsh_text), (4 bytes).
    Removing gd32f10x_misc.o(i.system_lowpower_reset), (16 bytes).
    Removing gd32f10x_misc.o(i.system_lowpower_set), (16 bytes).
    Removing gd32f10x_pmu.o(.rev16_text), (4 bytes).
    Removing gd32f10x_pmu.o(.revsh_text), (4 bytes).
    Removing gd32f10x_pmu.o(i.pmu_backup_write_disable), (20 bytes).
    Removing gd32f10x_pmu.o(i.pmu_backup_write_enable), (20 bytes).
    Removing gd32f10x_pmu.o(i.pmu_deinit), (20 bytes).
    Removing gd32f10x_pmu.o(i.pmu_flag_clear), (48 bytes).
    Removing gd32f10x_pmu.o(i.pmu_flag_get), (24 bytes).
    Removing gd32f10x_pmu.o(i.pmu_lvd_disable), (20 bytes).
    Removing gd32f10x_pmu.o(i.pmu_lvd_select), (48 bytes).
    Removing gd32f10x_pmu.o(i.pmu_to_deepsleepmode), (196 bytes).
    Removing gd32f10x_pmu.o(i.pmu_to_sleepmode), (28 bytes).
    Removing gd32f10x_pmu.o(i.pmu_to_standbymode), (52 bytes).
    Removing gd32f10x_pmu.o(i.pmu_wakeup_pin_disable), (20 bytes).
    Removing gd32f10x_pmu.o(i.pmu_wakeup_pin_enable), (20 bytes).
    Removing gd32f10x_pmu.o(.bss), (16 bytes).
    Removing gd32f10x_rcu.o(.rev16_text), (4 bytes).
    Removing gd32f10x_rcu.o(.revsh_text), (4 bytes).
    Removing gd32f10x_rcu.o(i.rcu_adc_clock_config), (72 bytes).
    Removing gd32f10x_rcu.o(i.rcu_ahb_clock_config), (24 bytes).
    Removing gd32f10x_rcu.o(i.rcu_all_reset_flag_clear), (20 bytes).
    Removing gd32f10x_rcu.o(i.rcu_apb1_clock_config), (24 bytes).
    Removing gd32f10x_rcu.o(i.rcu_apb2_clock_config), (24 bytes).
    Removing gd32f10x_rcu.o(i.rcu_bkp_reset_disable), (20 bytes).
    Removing gd32f10x_rcu.o(i.rcu_bkp_reset_enable), (20 bytes).
    Removing gd32f10x_rcu.o(i.rcu_ckout0_config), (24 bytes).
    Removing gd32f10x_rcu.o(i.rcu_deepsleep_voltage_set), (16 bytes).
    Removing gd32f10x_rcu.o(i.rcu_deinit), (88 bytes).
    Removing gd32f10x_rcu.o(i.rcu_flag_get), (36 bytes).
    Removing gd32f10x_rcu.o(i.rcu_hxtal_clock_monitor_disable), (20 bytes).
    Removing gd32f10x_rcu.o(i.rcu_hxtal_clock_monitor_enable), (20 bytes).
    Removing gd32f10x_rcu.o(i.rcu_interrupt_disable), (32 bytes).
    Removing gd32f10x_rcu.o(i.rcu_interrupt_enable), (32 bytes).
    Removing gd32f10x_rcu.o(i.rcu_interrupt_flag_clear), (32 bytes).
    Removing gd32f10x_rcu.o(i.rcu_interrupt_flag_get), (36 bytes).
    Removing gd32f10x_rcu.o(i.rcu_irc8m_adjust_value_set), (28 bytes).
    Removing gd32f10x_rcu.o(i.rcu_osci_bypass_mode_disable), (92 bytes).
    Removing gd32f10x_rcu.o(i.rcu_osci_bypass_mode_enable), (92 bytes).
    Removing gd32f10x_rcu.o(i.rcu_osci_off), (32 bytes).
    Removing gd32f10x_rcu.o(i.rcu_osci_on), (32 bytes).
    Removing gd32f10x_rcu.o(i.rcu_osci_stab_wait), (224 bytes).
    Removing gd32f10x_rcu.o(i.rcu_periph_clock_disable), (32 bytes).
    Removing gd32f10x_rcu.o(i.rcu_periph_clock_sleep_disable), (32 bytes).
    Removing gd32f10x_rcu.o(i.rcu_periph_clock_sleep_enable), (32 bytes).
    Removing gd32f10x_rcu.o(i.rcu_pll_config), (32 bytes).
    Removing gd32f10x_rcu.o(i.rcu_predv0_config), (32 bytes).
    Removing gd32f10x_rcu.o(i.rcu_rtc_clock_config), (24 bytes).
    Removing gd32f10x_rcu.o(i.rcu_system_clock_source_config), (24 bytes).
    Removing gd32f10x_rcu.o(i.rcu_system_clock_source_get), (16 bytes).
    Removing gd32f10x_rcu.o(i.rcu_usb_clock_config), (24 bytes).
    Removing gd32f10x_rtc.o(.rev16_text), (4 bytes).
    Removing gd32f10x_rtc.o(.revsh_text), (4 bytes).
    Removing gd32f10x_rtc.o(i.rtc_alarm_config), (32 bytes).
    Removing gd32f10x_rtc.o(i.rtc_configuration_mode_enter), (20 bytes).
    Removing gd32f10x_rtc.o(i.rtc_configuration_mode_exit), (20 bytes).
    Removing gd32f10x_rtc.o(i.rtc_counter_get), (20 bytes).
    Removing gd32f10x_rtc.o(i.rtc_counter_set), (32 bytes).
    Removing gd32f10x_rtc.o(i.rtc_divider_get), (24 bytes).
    Removing gd32f10x_rtc.o(i.rtc_flag_clear), (16 bytes).
    Removing gd32f10x_rtc.o(i.rtc_flag_get), (24 bytes).
    Removing gd32f10x_rtc.o(i.rtc_interrupt_disable), (16 bytes).
    Removing gd32f10x_rtc.o(i.rtc_interrupt_enable), (16 bytes).
    Removing gd32f10x_rtc.o(i.rtc_interrupt_flag_clear), (16 bytes).
    Removing gd32f10x_rtc.o(i.rtc_interrupt_flag_get), (24 bytes).
    Removing gd32f10x_rtc.o(i.rtc_lwoff_wait), (20 bytes).
    Removing gd32f10x_rtc.o(i.rtc_prescaler_set), (32 bytes).
    Removing gd32f10x_rtc.o(i.rtc_register_sync_wait), (32 bytes).
    Removing gd32f10x_sdio.o(.rev16_text), (4 bytes).
    Removing gd32f10x_sdio.o(.revsh_text), (4 bytes).
    Removing gd32f10x_sdio.o(i.sdio_bus_mode_set), (28 bytes).
    Removing gd32f10x_sdio.o(i.sdio_ceata_command_completion_disable), (20 bytes).
    Removing gd32f10x_sdio.o(i.sdio_ceata_command_completion_enable), (20 bytes).
    Removing gd32f10x_sdio.o(i.sdio_ceata_command_disable), (20 bytes).
    Removing gd32f10x_sdio.o(i.sdio_ceata_command_enable), (20 bytes).
    Removing gd32f10x_sdio.o(i.sdio_ceata_interrupt_disable), (20 bytes).
    Removing gd32f10x_sdio.o(i.sdio_ceata_interrupt_enable), (20 bytes).
    Removing gd32f10x_sdio.o(i.sdio_clock_config), (36 bytes).
    Removing gd32f10x_sdio.o(i.sdio_clock_disable), (20 bytes).
    Removing gd32f10x_sdio.o(i.sdio_clock_enable), (20 bytes).
    Removing gd32f10x_sdio.o(i.sdio_command_index_get), (12 bytes).
    Removing gd32f10x_sdio.o(i.sdio_command_response_config), (44 bytes).
    Removing gd32f10x_sdio.o(i.sdio_csm_disable), (20 bytes).
    Removing gd32f10x_sdio.o(i.sdio_csm_enable), (20 bytes).
    Removing gd32f10x_sdio.o(i.sdio_data_config), (52 bytes).
    Removing gd32f10x_sdio.o(i.sdio_data_counter_get), (12 bytes).
    Removing gd32f10x_sdio.o(i.sdio_data_read), (12 bytes).
    Removing gd32f10x_sdio.o(i.sdio_data_transfer_config), (28 bytes).
    Removing gd32f10x_sdio.o(i.sdio_data_write), (12 bytes).
    Removing gd32f10x_sdio.o(i.sdio_deinit), (28 bytes).
    Removing gd32f10x_sdio.o(i.sdio_dma_disable), (20 bytes).
    Removing gd32f10x_sdio.o(i.sdio_dma_enable), (20 bytes).
    Removing gd32f10x_sdio.o(i.sdio_dsm_disable), (20 bytes).
    Removing gd32f10x_sdio.o(i.sdio_dsm_enable), (20 bytes).
    Removing gd32f10x_sdio.o(i.sdio_fifo_counter_get), (12 bytes).
    Removing gd32f10x_sdio.o(i.sdio_flag_clear), (12 bytes).
    Removing gd32f10x_sdio.o(i.sdio_flag_get), (20 bytes).
    Removing gd32f10x_sdio.o(i.sdio_hardware_clock_disable), (20 bytes).
    Removing gd32f10x_sdio.o(i.sdio_hardware_clock_enable), (20 bytes).
    Removing gd32f10x_sdio.o(i.sdio_interrupt_disable), (16 bytes).
    Removing gd32f10x_sdio.o(i.sdio_interrupt_enable), (16 bytes).
    Removing gd32f10x_sdio.o(i.sdio_interrupt_flag_clear), (12 bytes).
    Removing gd32f10x_sdio.o(i.sdio_interrupt_flag_get), (24 bytes).
    Removing gd32f10x_sdio.o(i.sdio_operation_disable), (20 bytes).
    Removing gd32f10x_sdio.o(i.sdio_operation_enable), (20 bytes).
    Removing gd32f10x_sdio.o(i.sdio_power_state_get), (12 bytes).
    Removing gd32f10x_sdio.o(i.sdio_power_state_set), (12 bytes).
    Removing gd32f10x_sdio.o(i.sdio_readwait_disable), (20 bytes).
    Removing gd32f10x_sdio.o(i.sdio_readwait_enable), (20 bytes).
    Removing gd32f10x_sdio.o(i.sdio_readwait_type_set), (40 bytes).
    Removing gd32f10x_sdio.o(i.sdio_response_get), (56 bytes).
    Removing gd32f10x_sdio.o(i.sdio_stop_readwait_disable), (20 bytes).
    Removing gd32f10x_sdio.o(i.sdio_stop_readwait_enable), (20 bytes).
    Removing gd32f10x_sdio.o(i.sdio_suspend_disable), (20 bytes).
    Removing gd32f10x_sdio.o(i.sdio_suspend_enable), (20 bytes).
    Removing gd32f10x_sdio.o(i.sdio_wait_type_set), (28 bytes).
    Removing gd32f10x_spi.o(.rev16_text), (4 bytes).
    Removing gd32f10x_spi.o(.revsh_text), (4 bytes).
    Removing gd32f10x_spi.o(i.i2s_disable), (10 bytes).
    Removing gd32f10x_spi.o(i.i2s_enable), (10 bytes).
    Removing gd32f10x_spi.o(i.i2s_init), (28 bytes).
    Removing gd32f10x_spi.o(i.i2s_psc_config), (164 bytes).
    Removing gd32f10x_spi.o(i.spi_bidirectional_transfer_config), (26 bytes).
    Removing gd32f10x_spi.o(i.spi_crc_error_clear), (10 bytes).
    Removing gd32f10x_spi.o(i.spi_crc_get), (16 bytes).
    Removing gd32f10x_spi.o(i.spi_crc_next), (10 bytes).
    Removing gd32f10x_spi.o(i.spi_crc_off), (10 bytes).
    Removing gd32f10x_spi.o(i.spi_crc_on), (10 bytes).
    Removing gd32f10x_spi.o(i.spi_crc_polynomial_get), (8 bytes).
    Removing gd32f10x_spi.o(i.spi_crc_polynomial_set), (12 bytes).
    Removing gd32f10x_spi.o(i.spi_disable), (10 bytes).
    Removing gd32f10x_spi.o(i.spi_dma_disable), (22 bytes).
    Removing gd32f10x_spi.o(i.spi_dma_enable), (22 bytes).
    Removing gd32f10x_spi.o(i.spi_enable), (10 bytes).
    Removing gd32f10x_spi.o(i.spi_i2s_data_frame_format_config), (16 bytes).
    Removing gd32f10x_spi.o(i.spi_i2s_data_receive), (8 bytes).
    Removing gd32f10x_spi.o(i.spi_i2s_data_transmit), (4 bytes).
    Removing gd32f10x_spi.o(i.spi_i2s_deinit), (88 bytes).
    Removing gd32f10x_spi.o(i.spi_i2s_flag_get), (16 bytes).
    Removing gd32f10x_spi.o(i.spi_i2s_interrupt_disable), (48 bytes).
    Removing gd32f10x_spi.o(i.spi_i2s_interrupt_enable), (48 bytes).
    Removing gd32f10x_spi.o(i.spi_i2s_interrupt_flag_get), (100 bytes).
    Removing gd32f10x_spi.o(i.spi_init), (50 bytes).
    Removing gd32f10x_spi.o(i.spi_nss_internal_high), (10 bytes).
    Removing gd32f10x_spi.o(i.spi_nss_internal_low), (10 bytes).
    Removing gd32f10x_spi.o(i.spi_nss_output_disable), (10 bytes).
    Removing gd32f10x_spi.o(i.spi_nss_output_enable), (10 bytes).
    Removing gd32f10x_spi.o(i.spi_struct_para_init), (16 bytes).
    Removing gd32f10x_timer.o(.rev16_text), (4 bytes).
    Removing gd32f10x_timer.o(.revsh_text), (4 bytes).
    Removing gd32f10x_timer.o(i.timer_auto_reload_shadow_disable), (10 bytes).
    Removing gd32f10x_timer.o(i.timer_auto_reload_shadow_enable), (10 bytes).
    Removing gd32f10x_timer.o(i.timer_automatic_output_disable), (10 bytes).
    Removing gd32f10x_timer.o(i.timer_automatic_output_enable), (10 bytes).
    Removing gd32f10x_timer.o(i.timer_autoreload_value_config), (4 bytes).
    Removing gd32f10x_timer.o(i.timer_break_config), (30 bytes).
    Removing gd32f10x_timer.o(i.timer_break_disable), (10 bytes).
    Removing gd32f10x_timer.o(i.timer_break_enable), (10 bytes).
    Removing gd32f10x_timer.o(i.timer_break_struct_para_init), (18 bytes).
    Removing gd32f10x_timer.o(i.timer_channel_capture_value_register_read), (42 bytes).
    Removing gd32f10x_timer.o(i.timer_channel_complementary_output_polarity_config), (70 bytes).
    Removing gd32f10x_timer.o(i.timer_channel_complementary_output_state_config), (70 bytes).
    Removing gd32f10x_timer.o(i.timer_channel_control_shadow_config), (24 bytes).
    Removing gd32f10x_timer.o(i.timer_channel_control_shadow_update_config), (26 bytes).
    Removing gd32f10x_timer.o(i.timer_channel_dma_request_source_select), (26 bytes).
    Removing gd32f10x_timer.o(i.timer_channel_input_capture_prescaler_config), (90 bytes).
    Removing gd32f10x_timer.o(i.timer_channel_input_struct_para_init), (16 bytes).
    Removing gd32f10x_timer.o(i.timer_channel_output_clear_config), (90 bytes).
    Removing gd32f10x_timer.o(i.timer_channel_output_config), (492 bytes).
    Removing gd32f10x_timer.o(i.timer_channel_output_fast_config), (90 bytes).
    Removing gd32f10x_timer.o(i.timer_channel_output_mode_config), (90 bytes).
    Removing gd32f10x_timer.o(i.timer_channel_output_polarity_config), (92 bytes).
    Removing gd32f10x_timer.o(i.timer_channel_output_pulse_value_config), (38 bytes).
    Removing gd32f10x_timer.o(i.timer_channel_output_shadow_config), (90 bytes).
    Removing gd32f10x_timer.o(i.timer_channel_output_state_config), (92 bytes).
    Removing gd32f10x_timer.o(i.timer_channel_output_struct_para_init), (16 bytes).
    Removing gd32f10x_timer.o(i.timer_counter_alignment), (16 bytes).
    Removing gd32f10x_timer.o(i.timer_counter_down_direction), (10 bytes).
    Removing gd32f10x_timer.o(i.timer_counter_read), (8 bytes).
    Removing gd32f10x_timer.o(i.timer_counter_up_direction), (10 bytes).
    Removing gd32f10x_timer.o(i.timer_counter_value_config), (4 bytes).
    Removing gd32f10x_timer.o(i.timer_dma_disable), (8 bytes).
    Removing gd32f10x_timer.o(i.timer_dma_enable), (8 bytes).
    Removing gd32f10x_timer.o(i.timer_dma_transfer_config), (24 bytes).
    Removing gd32f10x_timer.o(i.timer_event_software_generate), (8 bytes).
    Removing gd32f10x_timer.o(i.timer_external_clock_mode0_config), (40 bytes).
    Removing gd32f10x_timer.o(i.timer_external_clock_mode1_config), (32 bytes).
    Removing gd32f10x_timer.o(i.timer_external_clock_mode1_disable), (10 bytes).
    Removing gd32f10x_timer.o(i.timer_external_trigger_as_external_clock_config), (166 bytes).
    Removing gd32f10x_timer.o(i.timer_external_trigger_config), (30 bytes).
    Removing gd32f10x_timer.o(i.timer_flag_clear), (6 bytes).
    Removing gd32f10x_timer.o(i.timer_flag_get), (16 bytes).
    Removing gd32f10x_timer.o(i.timer_hall_mode_config), (26 bytes).
    Removing gd32f10x_timer.o(i.timer_input_capture_config), (326 bytes).
    Removing gd32f10x_timer.o(i.timer_input_pwm_capture_config), (356 bytes).
    Removing gd32f10x_timer.o(i.timer_input_trigger_source_select), (16 bytes).
    Removing gd32f10x_timer.o(i.timer_internal_clock_config), (10 bytes).
    Removing gd32f10x_timer.o(i.timer_internal_trigger_as_external_clock_config), (32 bytes).
    Removing gd32f10x_timer.o(i.timer_interrupt_disable), (8 bytes).
    Removing gd32f10x_timer.o(i.timer_master_output_trigger_source_select), (16 bytes).
    Removing gd32f10x_timer.o(i.timer_master_slave_mode_config), (26 bytes).
    Removing gd32f10x_timer.o(i.timer_prescaler_config), (16 bytes).
    Removing gd32f10x_timer.o(i.timer_prescaler_read), (10 bytes).
    Removing gd32f10x_timer.o(i.timer_primary_output_config), (24 bytes).
    Removing gd32f10x_timer.o(i.timer_quadrature_decoder_mode_config), (64 bytes).
    Removing gd32f10x_timer.o(i.timer_repetition_value_config), (4 bytes).
    Removing gd32f10x_timer.o(i.timer_single_pulse_mode_config), (26 bytes).
    Removing gd32f10x_timer.o(i.timer_slave_mode_select), (16 bytes).
    Removing gd32f10x_timer.o(i.timer_struct_para_init), (22 bytes).
    Removing gd32f10x_timer.o(i.timer_update_event_disable), (10 bytes).
    Removing gd32f10x_timer.o(i.timer_update_event_enable), (10 bytes).
    Removing gd32f10x_timer.o(i.timer_update_source_config), (26 bytes).
    Removing gd32f10x_usart.o(.rev16_text), (4 bytes).
    Removing gd32f10x_usart.o(.revsh_text), (4 bytes).
    Removing gd32f10x_usart.o(i.usart_address_config), (20 bytes).
    Removing gd32f10x_usart.o(i.usart_dma_receive_config), (16 bytes).
    Removing gd32f10x_usart.o(i.usart_dma_transmit_config), (16 bytes).
    Removing gd32f10x_usart.o(i.usart_flag_clear), (26 bytes).
    Removing gd32f10x_usart.o(i.usart_guard_time_config), (24 bytes).
    Removing gd32f10x_usart.o(i.usart_halfduplex_disable), (10 bytes).
    Removing gd32f10x_usart.o(i.usart_halfduplex_enable), (10 bytes).
    Removing gd32f10x_usart.o(i.usart_irda_lowpower_config), (20 bytes).
    Removing gd32f10x_usart.o(i.usart_irda_mode_disable), (10 bytes).
    Removing gd32f10x_usart.o(i.usart_irda_mode_enable), (10 bytes).
    Removing gd32f10x_usart.o(i.usart_lin_break_detection_length_config), (20 bytes).
    Removing gd32f10x_usart.o(i.usart_lin_mode_disable), (10 bytes).
    Removing gd32f10x_usart.o(i.usart_lin_mode_enable), (10 bytes).
    Removing gd32f10x_usart.o(i.usart_mute_mode_disable), (10 bytes).
    Removing gd32f10x_usart.o(i.usart_mute_mode_enable), (10 bytes).
    Removing gd32f10x_usart.o(i.usart_mute_mode_wakeup_config), (16 bytes).
    Removing gd32f10x_usart.o(i.usart_prescaler_config), (16 bytes).
    Removing gd32f10x_usart.o(i.usart_send_break), (10 bytes).
    Removing gd32f10x_usart.o(i.usart_smartcard_mode_disable), (10 bytes).
    Removing gd32f10x_usart.o(i.usart_smartcard_mode_enable), (10 bytes).
    Removing gd32f10x_usart.o(i.usart_smartcard_mode_nack_disable), (10 bytes).
    Removing gd32f10x_usart.o(i.usart_smartcard_mode_nack_enable), (10 bytes).
    Removing gd32f10x_usart.o(i.usart_synchronous_clock_config), (34 bytes).
    Removing gd32f10x_usart.o(i.usart_synchronous_clock_disable), (10 bytes).
    Removing gd32f10x_usart.o(i.usart_synchronous_clock_enable), (10 bytes).
    Removing gd32f10x_wwdgt.o(.rev16_text), (4 bytes).
    Removing gd32f10x_wwdgt.o(.revsh_text), (4 bytes).
    Removing gd32f10x_wwdgt.o(i.wwdgt_config), (56 bytes).
    Removing gd32f10x_wwdgt.o(i.wwdgt_counter_update), (28 bytes).
    Removing gd32f10x_wwdgt.o(i.wwdgt_deinit), (20 bytes).
    Removing gd32f10x_wwdgt.o(i.wwdgt_enable), (20 bytes).
    Removing gd32f10x_wwdgt.o(i.wwdgt_flag_clear), (20 bytes).
    Removing gd32f10x_wwdgt.o(i.wwdgt_flag_get), (24 bytes).
    Removing gd32f10x_wwdgt.o(i.wwdgt_interrupt_enable), (20 bytes).
    Removing gd32f10x_it.o(.rev16_text), (4 bytes).
    Removing gd32f10x_it.o(.revsh_text), (4 bytes).
    Removing main.o(.rev16_text), (4 bytes).
    Removing main.o(.revsh_text), (4 bytes).
    Removing main.o(.data), (5 bytes).
    Removing systick.o(.rev16_text), (4 bytes).
    Removing systick.o(.revsh_text), (4 bytes).
    Removing init.o(.rev16_text), (4 bytes).
    Removing init.o(.revsh_text), (4 bytes).
    Removing modbus.o(.rev16_text), (4 bytes).
    Removing modbus.o(.revsh_text), (4 bytes).
    Removing commucateslave.o(.rev16_text), (4 bytes).
    Removing commucateslave.o(.revsh_text), (4 bytes).
    Removing commucateslave.o(i.CommunSlaveFun), (24 bytes).
    Removing protocol.o(.rev16_text), (4 bytes).
    Removing protocol.o(.revsh_text), (4 bytes).
    Removing ds18b20.o(.rev16_text), (4 bytes).
    Removing ds18b20.o(.revsh_text), (4 bytes).
    Removing ds18b20.o(i.CheckTempDiff), (288 bytes).
    Removing ds18b20.o(i.DS18B20GetExtTemp), (792 bytes).
    Removing ds18b20.o(i.Ext_DS18B20_Read_Bit), (112 bytes).
    Removing ds18b20.o(i.Ext_DS18B20_Read_Byte), (34 bytes).
    Removing isl1208.o(.rev16_text), (4 bytes).
    Removing isl1208.o(.revsh_text), (4 bytes).
    Removing wh_nb73.o(.rev16_text), (4 bytes).
    Removing wh_nb73.o(.revsh_text), (4 bytes).
    Removing wh_nb73.o(i.DebugNB), (116 bytes).
    Removing wh_nb73.o(i.ReadDataEnable), (20 bytes).
    Removing mt29f2g01abagdwb.o(.rev16_text), (4 bytes).
    Removing mt29f2g01abagdwb.o(.revsh_text), (4 bytes).
    Removing mt29f2g01abagdwb.o(i.DisableWp), (44 bytes).
    Removing mt29f2g01abagdwb.o(i.EarseBlock), (56 bytes).
    Removing mt29f2g01abagdwb.o(i.FlashFunTest), (160 bytes).
    Removing mt29f2g01abagdwb.o(i.NandFlashInit), (104 bytes).
    Removing mt29f2g01abagdwb.o(i.ReadFlashID), (60 bytes).
    Removing mt29f2g01abagdwb.o(i.ReadFromCache), (80 bytes).
    Removing mt29f2g01abagdwb.o(i.ReadPageToCache), (60 bytes).
    Removing mt29f2g01abagdwb.o(i.WaitForActionEnd), (48 bytes).
    Removing mt29f2g01abagdwb.o(i.WriteEnable), (32 bytes).
    Removing mt29f2g01abagdwb.o(i.WritePageExe), (60 bytes).
    Removing mt29f2g01abagdwb.o(i.WritePageLoad), (76 bytes).
    Removing mt29f2g01abagdwb.o(.constdata), (4 bytes).
    Removing mt29f2g01abagdwb.o(.data), (1 bytes).
    Removing cj2301.o(.rev16_text), (4 bytes).
    Removing cj2301.o(.revsh_text), (4 bytes).
    Removing hw_timer.o(.rev16_text), (4 bytes).
    Removing hw_timer.o(.revsh_text), (4 bytes).
    Removing hw_uart.o(.rev16_text), (4 bytes).
    Removing hw_uart.o(.revsh_text), (4 bytes).
    Removing hw_exit.o(.rev16_text), (4 bytes).
    Removing hw_exit.o(.revsh_text), (4 bytes).
    Removing hw_i2c.o(.rev16_text), (4 bytes).
    Removing hw_i2c.o(.revsh_text), (4 bytes).
    Removing hw_fmc.o(.rev16_text), (4 bytes).
    Removing hw_fmc.o(.revsh_text), (4 bytes).
    Removing hw_wdgt.o(.rev16_text), (4 bytes).
    Removing hw_wdgt.o(.revsh_text), (4 bytes).
    Removing hw_wdgt.o(i.WdgtFeed), (36 bytes).
    Removing hw_wdgt.o(i.WdgtInit), (18 bytes).
    Removing hw_wdgt.o(.data), (2 bytes).
    Removing hw_spi.o(.rev16_text), (4 bytes).
    Removing hw_spi.o(.revsh_text), (4 bytes).
    Removing hw_spi.o(i.SpiInit), (132 bytes).
    Removing hw_spi.o(i.spi_flash_read_byte), (10 bytes).
    Removing hw_spi.o(i.spi_flash_send_byte), (56 bytes).

589 unused section(s) (total 29962 bytes) removed from the image.

==============================================================================

Image Symbol Table

    Local Symbols

    Symbol Name                              Value     Ov Type        Size  Object(Section)

    ../clib/../cmprslib/zerorunl2.c          0x00000000   Number         0  __dczerorl2.o ABSOLUTE
    ../clib/microlib/division.c              0x00000000   Number         0  uldiv.o ABSOLUTE
    ../clib/microlib/division.c              0x00000000   Number         0  uidiv.o ABSOLUTE
    ../clib/microlib/init/entry.s            0x00000000   Number         0  entry7b.o ABSOLUTE
    ../clib/microlib/init/entry.s            0x00000000   Number         0  entry7a.o ABSOLUTE
    ../clib/microlib/init/entry.s            0x00000000   Number         0  entry9a.o ABSOLUTE
    ../clib/microlib/init/entry.s            0x00000000   Number         0  entry5.o ABSOLUTE
    ../clib/microlib/init/entry.s            0x00000000   Number         0  entry9b.o ABSOLUTE
    ../clib/microlib/init/entry.s            0x00000000   Number         0  entry10a.o ABSOLUTE
    ../clib/microlib/init/entry.s            0x00000000   Number         0  entry2.o ABSOLUTE
    ../clib/microlib/init/entry.s            0x00000000   Number         0  entry10b.o ABSOLUTE
    ../clib/microlib/init/entry.s            0x00000000   Number         0  entry.o ABSOLUTE
    ../clib/microlib/init/entry.s            0x00000000   Number         0  entry11a.o ABSOLUTE
    ../clib/microlib/init/entry.s            0x00000000   Number         0  entry8b.o ABSOLUTE
    ../clib/microlib/init/entry.s            0x00000000   Number         0  entry8a.o ABSOLUTE
    ../clib/microlib/init/entry.s            0x00000000   Number         0  entry11b.o ABSOLUTE
    ../clib/microlib/longlong.c              0x00000000   Number         0  llshl.o ABSOLUTE
    ../clib/microlib/longlong.c              0x00000000   Number         0  llsshr.o ABSOLUTE
    ../clib/microlib/longlong.c              0x00000000   Number         0  llushr.o ABSOLUTE
    ../clib/microlib/printf/printf.c         0x00000000   Number         0  printf0.o ABSOLUTE
    ../clib/microlib/printf/printf.c         0x00000000   Number         0  printf1.o ABSOLUTE
    ../clib/microlib/printf/printf.c         0x00000000   Number         0  printfb.o ABSOLUTE
    ../clib/microlib/printf/printf.c         0x00000000   Number         0  printf4.o ABSOLUTE
    ../clib/microlib/printf/printf.c         0x00000000   Number         0  printfa.o ABSOLUTE
    ../clib/microlib/printf/printf.c         0x00000000   Number         0  printf8.o ABSOLUTE
    ../clib/microlib/printf/printf.c         0x00000000   Number         0  printf7.o ABSOLUTE
    ../clib/microlib/printf/printf.c         0x00000000   Number         0  printf6.o ABSOLUTE
    ../clib/microlib/printf/printf.c         0x00000000   Number         0  printf5.o ABSOLUTE
    ../clib/microlib/printf/printf.c         0x00000000   Number         0  printf3.o ABSOLUTE
    ../clib/microlib/printf/printf.c         0x00000000   Number         0  printf2.o ABSOLUTE
    ../clib/microlib/printf/stubs.s          0x00000000   Number         0  stubs.o ABSOLUTE
    ../clib/microlib/stdio/streams.c         0x00000000   Number         0  stdout.o ABSOLUTE
    ../clib/microlib/stdlib/rand.c           0x00000000   Number         0  rand.o ABSOLUTE
    ../clib/microlib/string/memcmp.c         0x00000000   Number         0  memcmp.o ABSOLUTE
    ../clib/microlib/string/memcpy.c         0x00000000   Number         0  memcpyb.o ABSOLUTE
    ../clib/microlib/string/memcpy.c         0x00000000   Number         0  memcpya.o ABSOLUTE
    ../clib/microlib/string/memset.c         0x00000000   Number         0  memseta.o ABSOLUTE
    ../clib/microlib/string/strlen.c         0x00000000   Number         0  strlen.o ABSOLUTE
    ../clib/microlib/string/strstr.c         0x00000000   Number         0  strstr.o ABSOLUTE
    ../clib/microlib/stubs.s                 0x00000000   Number         0  iusefp.o ABSOLUTE
    ../clib/microlib/time/localtime.c        0x00000000   Number         0  localtime.o ABSOLUTE
    ../clib/microlib/time/localtime.c        0x00000000   Number         0  localtime_w.o ABSOLUTE
    ../clib/microlib/time/localtime.c        0x00000000   Number         0  localtime_i.o ABSOLUTE
    ../clib/microlib/time/mktime.c           0x00000000   Number         0  mktime.o ABSOLUTE
    ../fplib/microlib/d2f.c                  0x00000000   Number         0  d2f.o ABSOLUTE
    ../fplib/microlib/f2d.c                  0x00000000   Number         0  f2d.o ABSOLUTE
    ../fplib/microlib/fpadd.c                0x00000000   Number         0  fadd.o ABSOLUTE
    ../fplib/microlib/fpadd.c                0x00000000   Number         0  dadd.o ABSOLUTE
    ../fplib/microlib/fpdiv.c                0x00000000   Number         0  fdiv.o ABSOLUTE
    ../fplib/microlib/fpdiv.c                0x00000000   Number         0  ddiv.o ABSOLUTE
    ../fplib/microlib/fpepilogue.c           0x00000000   Number         0  fepilogue.o ABSOLUTE
    ../fplib/microlib/fpepilogue.c           0x00000000   Number         0  depilogue.o ABSOLUTE
    ../fplib/microlib/fpfix.c                0x00000000   Number         0  ffixui.o ABSOLUTE
    ../fplib/microlib/fpfix.c                0x00000000   Number         0  dfixul.o ABSOLUTE
    ../fplib/microlib/fpflt.c                0x00000000   Number         0  fflti.o ABSOLUTE
    ../fplib/microlib/fpflt.c                0x00000000   Number         0  ffltui.o ABSOLUTE
    ../fplib/microlib/fpmul.c                0x00000000   Number         0  fmul.o ABSOLUTE
    ../fplib/microlib/fpmul.c                0x00000000   Number         0  dmul.o ABSOLUTE
    ..\CORE\GD\GD32F10x\Source\ARM\startup_gd32f10x_md.s 0x00000000   Number         0  startup_gd32f10x_md.o ABSOLUTE
    ..\CORE\GD\GD32F10x\Source\system_gd32f10x.c 0x00000000   Number         0  system_gd32f10x.o ABSOLUTE
    ..\Hardware\CJ2301\cj2301.c              0x00000000   Number         0  cj2301.o ABSOLUTE
    ..\Hardware\DS18B20\ds18b20.c            0x00000000   Number         0  ds18b20.o ABSOLUTE
    ..\Hardware\ISL1208\Isl1208.c            0x00000000   Number         0  isl1208.o ABSOLUTE
    ..\Hardware\MT29F2G01ABAGDWB\MT29F2G01ABAGDWB.c 0x00000000   Number         0  mt29f2g01abagdwb.o ABSOLUTE
    ..\Hardware\WH_NB73\wh_nb73.c            0x00000000   Number         0  wh_nb73.o ABSOLUTE
    ..\Hw_hal\hw_exit.c                      0x00000000   Number         0  hw_exit.o ABSOLUTE
    ..\Hw_hal\hw_fmc.c                       0x00000000   Number         0  hw_fmc.o ABSOLUTE
    ..\Hw_hal\hw_i2c.c                       0x00000000   Number         0  hw_i2c.o ABSOLUTE
    ..\Hw_hal\hw_spi.c                       0x00000000   Number         0  hw_spi.o ABSOLUTE
    ..\Hw_hal\hw_timer.c                     0x00000000   Number         0  hw_timer.o ABSOLUTE
    ..\Hw_hal\hw_uart.c                      0x00000000   Number         0  hw_uart.o ABSOLUTE
    ..\Hw_hal\hw_wdgt.c                      0x00000000   Number         0  hw_wdgt.o ABSOLUTE
    ..\Library\Source\gd32f10x_adc.c         0x00000000   Number         0  gd32f10x_adc.o ABSOLUTE
    ..\Library\Source\gd32f10x_bkp.c         0x00000000   Number         0  gd32f10x_bkp.o ABSOLUTE
    ..\Library\Source\gd32f10x_can.c         0x00000000   Number         0  gd32f10x_can.o ABSOLUTE
    ..\Library\Source\gd32f10x_crc.c         0x00000000   Number         0  gd32f10x_crc.o ABSOLUTE
    ..\Library\Source\gd32f10x_dac.c         0x00000000   Number         0  gd32f10x_dac.o ABSOLUTE
    ..\Library\Source\gd32f10x_dbg.c         0x00000000   Number         0  gd32f10x_dbg.o ABSOLUTE
    ..\Library\Source\gd32f10x_dma.c         0x00000000   Number         0  gd32f10x_dma.o ABSOLUTE
    ..\Library\Source\gd32f10x_enet.c        0x00000000   Number         0  gd32f10x_enet.o ABSOLUTE
    ..\Library\Source\gd32f10x_exmc.c        0x00000000   Number         0  gd32f10x_exmc.o ABSOLUTE
    ..\Library\Source\gd32f10x_exti.c        0x00000000   Number         0  gd32f10x_exti.o ABSOLUTE
    ..\Library\Source\gd32f10x_fmc.c         0x00000000   Number         0  gd32f10x_fmc.o ABSOLUTE
    ..\Library\Source\gd32f10x_fwdgt.c       0x00000000   Number         0  gd32f10x_fwdgt.o ABSOLUTE
    ..\Library\Source\gd32f10x_gpio.c        0x00000000   Number         0  gd32f10x_gpio.o ABSOLUTE
    ..\Library\Source\gd32f10x_i2c.c         0x00000000   Number         0  gd32f10x_i2c.o ABSOLUTE
    ..\Library\Source\gd32f10x_misc.c        0x00000000   Number         0  gd32f10x_misc.o ABSOLUTE
    ..\Library\Source\gd32f10x_pmu.c         0x00000000   Number         0  gd32f10x_pmu.o ABSOLUTE
    ..\Library\Source\gd32f10x_rcu.c         0x00000000   Number         0  gd32f10x_rcu.o ABSOLUTE
    ..\Library\Source\gd32f10x_rtc.c         0x00000000   Number         0  gd32f10x_rtc.o ABSOLUTE
    ..\Library\Source\gd32f10x_sdio.c        0x00000000   Number         0  gd32f10x_sdio.o ABSOLUTE
    ..\Library\Source\gd32f10x_spi.c         0x00000000   Number         0  gd32f10x_spi.o ABSOLUTE
    ..\Library\Source\gd32f10x_timer.c       0x00000000   Number         0  gd32f10x_timer.o ABSOLUTE
    ..\Library\Source\gd32f10x_usart.c       0x00000000   Number         0  gd32f10x_usart.o ABSOLUTE
    ..\Library\Source\gd32f10x_wwdgt.c       0x00000000   Number         0  gd32f10x_wwdgt.o ABSOLUTE
    ..\\CORE\\GD\\GD32F10x\\Source\\system_gd32f10x.c 0x00000000   Number         0  system_gd32f10x.o ABSOLUTE
    ..\\Hardware\\CJ2301\\cj2301.c           0x00000000   Number         0  cj2301.o ABSOLUTE
    ..\\Hardware\\DS18B20\\ds18b20.c         0x00000000   Number         0  ds18b20.o ABSOLUTE
    ..\\Hardware\\ISL1208\\Isl1208.c         0x00000000   Number         0  isl1208.o ABSOLUTE
    ..\\Hardware\\MT29F2G01ABAGDWB\\MT29F2G01ABAGDWB.c 0x00000000   Number         0  mt29f2g01abagdwb.o ABSOLUTE
    ..\\Hardware\\WH_NB73\\wh_nb73.c         0x00000000   Number         0  wh_nb73.o ABSOLUTE
    ..\\Hw_hal\\hw_exit.c                    0x00000000   Number         0  hw_exit.o ABSOLUTE
    ..\\Hw_hal\\hw_fmc.c                     0x00000000   Number         0  hw_fmc.o ABSOLUTE
    ..\\Hw_hal\\hw_i2c.c                     0x00000000   Number         0  hw_i2c.o ABSOLUTE
    ..\\Hw_hal\\hw_spi.c                     0x00000000   Number         0  hw_spi.o ABSOLUTE
    ..\\Hw_hal\\hw_timer.c                   0x00000000   Number         0  hw_timer.o ABSOLUTE
    ..\\Hw_hal\\hw_uart.c                    0x00000000   Number         0  hw_uart.o ABSOLUTE
    ..\\Hw_hal\\hw_wdgt.c                    0x00000000   Number         0  hw_wdgt.o ABSOLUTE
    ..\\Library\\Source\\gd32f10x_adc.c      0x00000000   Number         0  gd32f10x_adc.o ABSOLUTE
    ..\\Library\\Source\\gd32f10x_bkp.c      0x00000000   Number         0  gd32f10x_bkp.o ABSOLUTE
    ..\\Library\\Source\\gd32f10x_can.c      0x00000000   Number         0  gd32f10x_can.o ABSOLUTE
    ..\\Library\\Source\\gd32f10x_crc.c      0x00000000   Number         0  gd32f10x_crc.o ABSOLUTE
    ..\\Library\\Source\\gd32f10x_dac.c      0x00000000   Number         0  gd32f10x_dac.o ABSOLUTE
    ..\\Library\\Source\\gd32f10x_dbg.c      0x00000000   Number         0  gd32f10x_dbg.o ABSOLUTE
    ..\\Library\\Source\\gd32f10x_dma.c      0x00000000   Number         0  gd32f10x_dma.o ABSOLUTE
    ..\\Library\\Source\\gd32f10x_enet.c     0x00000000   Number         0  gd32f10x_enet.o ABSOLUTE
    ..\\Library\\Source\\gd32f10x_exmc.c     0x00000000   Number         0  gd32f10x_exmc.o ABSOLUTE
    ..\\Library\\Source\\gd32f10x_exti.c     0x00000000   Number         0  gd32f10x_exti.o ABSOLUTE
    ..\\Library\\Source\\gd32f10x_fmc.c      0x00000000   Number         0  gd32f10x_fmc.o ABSOLUTE
    ..\\Library\\Source\\gd32f10x_fwdgt.c    0x00000000   Number         0  gd32f10x_fwdgt.o ABSOLUTE
    ..\\Library\\Source\\gd32f10x_gpio.c     0x00000000   Number         0  gd32f10x_gpio.o ABSOLUTE
    ..\\Library\\Source\\gd32f10x_i2c.c      0x00000000   Number         0  gd32f10x_i2c.o ABSOLUTE
    ..\\Library\\Source\\gd32f10x_misc.c     0x00000000   Number         0  gd32f10x_misc.o ABSOLUTE
    ..\\Library\\Source\\gd32f10x_pmu.c      0x00000000   Number         0  gd32f10x_pmu.o ABSOLUTE
    ..\\Library\\Source\\gd32f10x_rcu.c      0x00000000   Number         0  gd32f10x_rcu.o ABSOLUTE
    ..\\Library\\Source\\gd32f10x_rtc.c      0x00000000   Number         0  gd32f10x_rtc.o ABSOLUTE
    ..\\Library\\Source\\gd32f10x_sdio.c     0x00000000   Number         0  gd32f10x_sdio.o ABSOLUTE
    ..\\Library\\Source\\gd32f10x_spi.c      0x00000000   Number         0  gd32f10x_spi.o ABSOLUTE
    ..\\Library\\Source\\gd32f10x_timer.c    0x00000000   Number         0  gd32f10x_timer.o ABSOLUTE
    ..\\Library\\Source\\gd32f10x_usart.c    0x00000000   Number         0  gd32f10x_usart.o ABSOLUTE
    ..\\Library\\Source\\gd32f10x_wwdgt.c    0x00000000   Number         0  gd32f10x_wwdgt.o ABSOLUTE
    Init.c                                   0x00000000   Number         0  init.o ABSOLUTE
    Init.c                                   0x00000000   Number         0  init.o ABSOLUTE
    cdrcmple.s                               0x00000000   Number         0  cdrcmple.o ABSOLUTE
    commucateSlave.c                         0x00000000   Number         0  commucateslave.o ABSOLUTE
    commucateSlave.c                         0x00000000   Number         0  commucateslave.o ABSOLUTE
    dc.s                                     0x00000000   Number         0  dc.o ABSOLUTE
    gd32f10x_it.c                            0x00000000   Number         0  gd32f10x_it.o ABSOLUTE
    gd32f10x_it.c                            0x00000000   Number         0  gd32f10x_it.o ABSOLUTE
    handlers.s                               0x00000000   Number         0  handlers.o ABSOLUTE
    init.s                                   0x00000000   Number         0  init.o ABSOLUTE
    main.c                                   0x00000000   Number         0  main.o ABSOLUTE
    main.c                                   0x00000000   Number         0  main.o ABSOLUTE
    modbus.c                                 0x00000000   Number         0  modbus.o ABSOLUTE
    modbus.c                                 0x00000000   Number         0  modbus.o ABSOLUTE
    protocol.c                               0x00000000   Number         0  protocol.o ABSOLUTE
    protocol.c                               0x00000000   Number         0  protocol.o ABSOLUTE
    systick.c                                0x00000000   Number         0  systick.o ABSOLUTE
    systick.c                                0x00000000   Number         0  systick.o ABSOLUTE
    RESET                                    0x08000000   Section      260  startup_gd32f10x_md.o(RESET)
    .ARM.Collect$$$$00000000                 0x08000104   Section        0  entry.o(.ARM.Collect$$$$00000000)
    .ARM.Collect$$$$00000001                 0x08000104   Section        4  entry2.o(.ARM.Collect$$$$00000001)
    .ARM.Collect$$$$00000004                 0x08000108   Section        4  entry5.o(.ARM.Collect$$$$00000004)
    .ARM.Collect$$$$00000008                 0x0800010c   Section        0  entry7b.o(.ARM.Collect$$$$00000008)
    .ARM.Collect$$$$0000000A                 0x0800010c   Section        0  entry8b.o(.ARM.Collect$$$$0000000A)
    .ARM.Collect$$$$0000000B                 0x0800010c   Section        8  entry9a.o(.ARM.Collect$$$$0000000B)
    .ARM.Collect$$$$0000000D                 0x08000114   Section        0  entry10a.o(.ARM.Collect$$$$0000000D)
    .ARM.Collect$$$$0000000F                 0x08000114   Section        0  entry11a.o(.ARM.Collect$$$$0000000F)
    .ARM.Collect$$$$00002712                 0x08000114   Section        4  entry2.o(.ARM.Collect$$$$00002712)
    __lit__00000000                          0x08000114   Data           4  entry2.o(.ARM.Collect$$$$00002712)
    .text                                    0x08000118   Section       36  startup_gd32f10x_md.o(.text)
    .text                                    0x0800013c   Section        0  rand.o(.text)
    .text                                    0x08000160   Section        0  mktime.o(.text)
    .text                                    0x08000208   Section        0  memcpya.o(.text)
    .text                                    0x0800022c   Section        0  memseta.o(.text)
    .text                                    0x08000250   Section        0  strstr.o(.text)
    .text                                    0x08000274   Section        0  strlen.o(.text)
    .text                                    0x08000282   Section        0  memcmp.o(.text)
    .text                                    0x0800029c   Section        0  fadd.o(.text)
    .text                                    0x0800034c   Section        0  fmul.o(.text)
    .text                                    0x080003b0   Section        0  fdiv.o(.text)
    .text                                    0x0800042c   Section        0  dadd.o(.text)
    .text                                    0x0800057a   Section        0  dmul.o(.text)
    .text                                    0x0800065e   Section        0  ddiv.o(.text)
    .text                                    0x0800073c   Section        0  fflti.o(.text)
    .text                                    0x0800074e   Section        0  ffltui.o(.text)
    .text                                    0x08000758   Section        0  ffixui.o(.text)
    .text                                    0x08000780   Section        0  f2d.o(.text)
    .text                                    0x080007a8   Section       48  cdrcmple.o(.text)
    .text                                    0x080007d8   Section        0  d2f.o(.text)
    .text                                    0x08000810   Section        0  uidiv.o(.text)
    .text                                    0x0800083c   Section        0  uldiv.o(.text)
    .text                                    0x0800089e   Section        0  llshl.o(.text)
    .text                                    0x080008bc   Section        0  llsshr.o(.text)
    .text                                    0x080008e0   Section        0  localtime_w.o(.text)
    .text                                    0x080008ec   Section        0  localtime_i.o(.text)
    .text                                    0x08000978   Section        0  iusefp.o(.text)
    .text                                    0x08000978   Section        0  fepilogue.o(.text)
    .text                                    0x080009e6   Section        0  depilogue.o(.text)
    .text                                    0x08000aa0   Section        0  dfixul.o(.text)
    .text                                    0x08000ad0   Section       36  init.o(.text)
    .text                                    0x08000af4   Section        0  llushr.o(.text)
    .text                                    0x08000b14   Section        0  __dczerorl2.o(.text)
    i.AsynCheck                              0x08000b6c   Section        0  wh_nb73.o(i.AsynCheck)
    AsynCheck                                0x08000b6d   Thumb Code   130  wh_nb73.o(i.AsynCheck)
    i.BackUpAdd                              0x08000c14   Section        0  init.o(i.BackUpAdd)
    i.BackUpClearOne                         0x08000cbc   Section        0  init.o(i.BackUpClearOne)
    i.BcdToByte                              0x08000d04   Section        0  isl1208.o(i.BcdToByte)
    i.BuildSendProPak                        0x08000d18   Section        0  protocol.o(i.BuildSendProPak)
    BuildSendProPak                          0x08000d19   Thumb Code   144  protocol.o(i.BuildSendProPak)
    i.BusFault_Handler                       0x08000da8   Section        0  gd32f10x_it.o(i.BusFault_Handler)
    i.Byte2HexString                         0x08000dac   Section        0  wh_nb73.o(i.Byte2HexString)
    Byte2HexString                           0x08000dad   Thumb Code    66  wh_nb73.o(i.Byte2HexString)
    i.ByteToBcd                              0x08000dee   Section        0  isl1208.o(i.ByteToBcd)
    i.CCID_TO_BCD                            0x08000e08   Section        0  wh_nb73.o(i.CCID_TO_BCD)
    CCID_TO_BCD                              0x08000e09   Thumb Code    48  wh_nb73.o(i.CCID_TO_BCD)
    i.CheckCRC                               0x08000e3c   Section        0  hw_fmc.o(i.CheckCRC)
    i.CheckLedNormal                         0x08000e58   Section        0  main.o(i.CheckLedNormal)
    CheckLedNormal                           0x08000e59   Thumb Code    18  main.o(i.CheckLedNormal)
    i.CheckNet                               0x08000e70   Section        0  wh_nb73.o(i.CheckNet)
    CheckNet                                 0x08000e71   Thumb Code    64  wh_nb73.o(i.CheckNet)
    i.CheckTemMax                            0x08000eb8   Section        0  modbus.o(i.CheckTemMax)
    CheckTemMax                              0x08000eb9   Thumb Code   128  modbus.o(i.CheckTemMax)
    i.CheckTemMin                            0x08000f3c   Section        0  modbus.o(i.CheckTemMin)
    CheckTemMin                              0x08000f3d   Thumb Code   128  modbus.o(i.CheckTemMin)
    i.Cj2301CheckConnect                     0x08000fc0   Section        0  cj2301.o(i.Cj2301CheckConnect)
    Cj2301CheckConnect                       0x08000fc1   Thumb Code   176  cj2301.o(i.Cj2301CheckConnect)
    i.Cj2301_EndRead                         0x08001078   Section        0  cj2301.o(i.Cj2301_EndRead)
    i.Cj2301_Init                            0x0800109c   Section        0  cj2301.o(i.Cj2301_Init)
    i.Cj2301_Read                            0x0800115c   Section        0  cj2301.o(i.Cj2301_Read)
    i.Cj2301_ReadTempHumi                    0x08001188   Section        0  cj2301.o(i.Cj2301_ReadTempHumi)
    i.Cj2301_StartReadTempHumi               0x08001268   Section        0  cj2301.o(i.Cj2301_StartReadTempHumi)
    i.ClearData                              0x08001308   Section        0  protocol.o(i.ClearData)
    ClearData                                0x08001309   Thumb Code    12  protocol.o(i.ClearData)
    i.ClearRevBuf                            0x08001318   Section        0  wh_nb73.o(i.ClearRevBuf)
    ClearRevBuf                              0x08001319   Thumb Code    20  wh_nb73.o(i.ClearRevBuf)
    i.CommunAdd                              0x08001334   Section        0  hw_uart.o(i.CommunAdd)
    i.CommunCheck                            0x08001388   Section        0  hw_uart.o(i.CommunCheck)
    i.CommunGetData                          0x0800139c   Section        0  hw_uart.o(i.CommunGetData)
    i.CommunUartSendBuf                      0x080013f8   Section        0  hw_uart.o(i.CommunUartSendBuf)
    i.ConfResCheck                           0x08001428   Section        0  wh_nb73.o(i.ConfResCheck)
    ConfResCheck                             0x08001429   Thumb Code    44  wh_nb73.o(i.ConfResCheck)
    i.ConnectServer                          0x08001458   Section        0  wh_nb73.o(i.ConnectServer)
    ConnectServer                            0x08001459   Thumb Code    38  wh_nb73.o(i.ConnectServer)
    i.CreateSocket                           0x080014a8   Section        0  wh_nb73.o(i.CreateSocket)
    CreateSocket                             0x080014a9   Thumb Code    38  wh_nb73.o(i.CreateSocket)
    i.CreateSocketDisable                    0x080014e8   Section        0  wh_nb73.o(i.CreateSocketDisable)
    CreateSocketDisable                      0x080014e9   Thumb Code    18  wh_nb73.o(i.CreateSocketDisable)
    i.CreateSocketEnable                     0x08001500   Section        0  wh_nb73.o(i.CreateSocketEnable)
    i.CreateSocketFunc                       0x08001514   Section        0  wh_nb73.o(i.CreateSocketFunc)
    CreateSocketFunc                         0x08001515   Thumb Code    32  wh_nb73.o(i.CreateSocketFunc)
    i.DS18B20GetIntTemp                      0x08001538   Section        0  ds18b20.o(i.DS18B20GetIntTemp)
    i.DS18B20_Check                          0x0800184c   Section        0  ds18b20.o(i.DS18B20_Check)
    i.DS18B20_Init                           0x0800192c   Section        0  ds18b20.o(i.DS18B20_Init)
    i.DS18B20_Read_Bit                       0x080019fc   Section        0  ds18b20.o(i.DS18B20_Read_Bit)
    i.DS18B20_Read_Byte                      0x08001a68   Section        0  ds18b20.o(i.DS18B20_Read_Byte)
    i.DS18B20_Rst                            0x08001a8c   Section        0  ds18b20.o(i.DS18B20_Rst)
    i.DS18B20_Start                          0x08001b08   Section        0  ds18b20.o(i.DS18B20_Start)
    i.DS18B20_Write_Byte                     0x08001b38   Section        0  ds18b20.o(i.DS18B20_Write_Byte)
    i.DebugMon_Handler                       0x08001ba8   Section        0  gd32f10x_it.o(i.DebugMon_Handler)
    i.EXTI10_15_IRQHandler                   0x08001bac   Section        0  hw_exit.o(i.EXTI10_15_IRQHandler)
    i.EnterBypass                            0x08001cec   Section        0  commucateslave.o(i.EnterBypass)
    EnterBypass                              0x08001ced   Thumb Code    26  commucateslave.o(i.EnterBypass)
    i.EnterUpgradeAction                     0x08001d0c   Section        0  commucateslave.o(i.EnterUpgradeAction)
    EnterUpgradeAction                       0x08001d0d   Thumb Code    58  commucateslave.o(i.EnterUpgradeAction)
    i.ExitBypassParse                        0x08001d54   Section        0  modbus.o(i.ExitBypassParse)
    ExitBypassParse                          0x08001d55   Thumb Code   160  modbus.o(i.ExitBypassParse)
    i.ExitInit                               0x08001dfc   Section        0  hw_exit.o(i.ExitInit)
    i.Ext_DS18B20_Write_Byte                 0x08001eb0   Section        0  ds18b20.o(i.Ext_DS18B20_Write_Byte)
    i.FMC_StoreInfoInit                      0x08001f28   Section        0  hw_fmc.o(i.FMC_StoreInfoInit)
    i.GetAttach                              0x08002058   Section        0  wh_nb73.o(i.GetAttach)
    GetAttach                                0x08002059   Thumb Code    32  wh_nb73.o(i.GetAttach)
    i.GetAttachDisable                       0x08002084   Section        0  wh_nb73.o(i.GetAttachDisable)
    GetAttachDisable                         0x08002085   Thumb Code    18  wh_nb73.o(i.GetAttachDisable)
    i.GetAttachFunc                          0x0800209c   Section        0  wh_nb73.o(i.GetAttachFunc)
    GetAttachFunc                            0x0800209d   Thumb Code    32  wh_nb73.o(i.GetAttachFunc)
    i.GetAttchEnable                         0x080020c0   Section        0  wh_nb73.o(i.GetAttchEnable)
    i.GetBaudRateH                           0x080020d4   Section        0  modbus.o(i.GetBaudRateH)
    GetBaudRateH                             0x080020d5   Thumb Code     8  modbus.o(i.GetBaudRateH)
    i.GetBaudRateL                           0x080020e0   Section        0  modbus.o(i.GetBaudRateL)
    GetBaudRateL                             0x080020e1   Thumb Code     8  modbus.o(i.GetBaudRateL)
    i.GetCCID                                0x080020ec   Section        0  wh_nb73.o(i.GetCCID)
    GetCCID                                  0x080020ed   Thumb Code    32  wh_nb73.o(i.GetCCID)
    i.GetCCIDDisable                         0x0800211c   Section        0  wh_nb73.o(i.GetCCIDDisable)
    GetCCIDDisable                           0x0800211d   Thumb Code    18  wh_nb73.o(i.GetCCIDDisable)
    i.GetCcidEnable                          0x08002134   Section        0  wh_nb73.o(i.GetCcidEnable)
    i.GetCcidFunc                            0x08002148   Section        0  wh_nb73.o(i.GetCcidFunc)
    GetCcidFunc                              0x08002149   Thumb Code    32  wh_nb73.o(i.GetCcidFunc)
    i.GetCh3_Set                             0x0800216c   Section        0  modbus.o(i.GetCh3_Set)
    GetCh3_Set                               0x0800216d   Thumb Code     6  modbus.o(i.GetCh3_Set)
    i.GetChannel3_Status                     0x08002178   Section        0  hw_exit.o(i.GetChannel3_Status)
    i.GetChannel4Alarm                       0x0800222c   Section        0  modbus.o(i.GetChannel4Alarm)
    GetChannel4Alarm                         0x0800222d   Thumb Code    34  modbus.o(i.GetChannel4Alarm)
    i.GetCheckSum                            0x08002254   Section        0  wh_nb73.o(i.GetCheckSum)
    GetCheckSum                              0x08002255   Thumb Code    30  wh_nb73.o(i.GetCheckSum)
    i.GetCloseAbnormal                       0x08002274   Section        0  modbus.o(i.GetCloseAbnormal)
    GetCloseAbnormal                         0x08002275   Thumb Code    10  modbus.o(i.GetCloseAbnormal)
    i.GetCloseAlarm                          0x08002284   Section        0  modbus.o(i.GetCloseAlarm)
    GetCloseAlarm                            0x08002285   Thumb Code    10  modbus.o(i.GetCloseAlarm)
    i.GetCloseFlag                           0x08002294   Section        0  modbus.o(i.GetCloseFlag)
    GetCloseFlag                             0x08002295   Thumb Code    48  modbus.o(i.GetCloseFlag)
    i.GetCloseTime                           0x080022d0   Section        0  modbus.o(i.GetCloseTime)
    GetCloseTime                             0x080022d1   Thumb Code    52  modbus.o(i.GetCloseTime)
    i.GetCloseUnixH                          0x08002310   Section        0  modbus.o(i.GetCloseUnixH)
    GetCloseUnixH                            0x08002311   Thumb Code    50  modbus.o(i.GetCloseUnixH)
    i.GetCloseUnixL                          0x08002350   Section        0  modbus.o(i.GetCloseUnixL)
    GetCloseUnixL                            0x08002351   Thumb Code    96  modbus.o(i.GetCloseUnixL)
    i.GetDeviceStatus                        0x080023bc   Section        0  modbus.o(i.GetDeviceStatus)
    GetDeviceStatus                          0x080023bd   Thumb Code    16  modbus.o(i.GetDeviceStatus)
    i.GetExitPinVal                          0x080023d0   Section        0  hw_exit.o(i.GetExitPinVal)
    i.GetExterTem                            0x08002570   Section        0  modbus.o(i.GetExterTem)
    GetExterTem                              0x08002571   Thumb Code    18  modbus.o(i.GetExterTem)
    i.GetHumi                                0x08002588   Section        0  modbus.o(i.GetHumi)
    GetHumi                                  0x08002589   Thumb Code    16  modbus.o(i.GetHumi)
    i.GetHumiAbnormal                        0x0800259c   Section        0  modbus.o(i.GetHumiAbnormal)
    GetHumiAbnormal                          0x0800259d   Thumb Code     8  modbus.o(i.GetHumiAbnormal)
    i.GetHumiIdDisable                       0x080025a8   Section        0  protocol.o(i.GetHumiIdDisable)
    GetHumiIdDisable                         0x080025a9   Thumb Code    18  protocol.o(i.GetHumiIdDisable)
    i.GetHumiIdEnable                        0x080025c0   Section        0  protocol.o(i.GetHumiIdEnable)
    GetHumiIdEnable                          0x080025c1   Thumb Code    16  protocol.o(i.GetHumiIdEnable)
    i.GetHumiIdFun                           0x080025d4   Section        0  protocol.o(i.GetHumiIdFun)
    GetHumiIdFun                             0x080025d5   Thumb Code    32  protocol.o(i.GetHumiIdFun)
    i.GetHumiValEnable                       0x080025f8   Section        0  protocol.o(i.GetHumiValEnable)
    GetHumiValEnable                         0x080025f9   Thumb Code    16  protocol.o(i.GetHumiValEnable)
    i.GetHumiValFun                          0x0800260c   Section        0  protocol.o(i.GetHumiValFun)
    GetHumiValFun                            0x0800260d   Thumb Code    32  protocol.o(i.GetHumiValFun)
    i.GetHumipValDisable                     0x08002630   Section        0  protocol.o(i.GetHumipValDisable)
    GetHumipValDisable                       0x08002631   Thumb Code    18  protocol.o(i.GetHumipValDisable)
    i.GetHwVer                               0x08002648   Section        0  modbus.o(i.GetHwVer)
    GetHwVer                                 0x08002649   Thumb Code     4  modbus.o(i.GetHwVer)
    i.GetImei                                0x0800264c   Section        0  wh_nb73.o(i.GetImei)
    GetImei                                  0x0800264d   Thumb Code    32  wh_nb73.o(i.GetImei)
    i.GetImeiDisable                         0x08002678   Section        0  wh_nb73.o(i.GetImeiDisable)
    GetImeiDisable                           0x08002679   Thumb Code    18  wh_nb73.o(i.GetImeiDisable)
    i.GetImeiEnable                          0x08002690   Section        0  wh_nb73.o(i.GetImeiEnable)
    i.GetImeiFunc                            0x080026a4   Section        0  wh_nb73.o(i.GetImeiFunc)
    GetImeiFunc                              0x080026a5   Thumb Code    32  wh_nb73.o(i.GetImeiFunc)
    i.GetInterTem                            0x080026c8   Section        0  modbus.o(i.GetInterTem)
    GetInterTem                              0x080026c9   Thumb Code     8  modbus.o(i.GetInterTem)
    i.GetIp                                  0x080026d4   Section        0  wh_nb73.o(i.GetIp)
    GetIp                                    0x080026d5   Thumb Code    32  wh_nb73.o(i.GetIp)
    i.GetIpDisable                           0x08002704   Section        0  wh_nb73.o(i.GetIpDisable)
    GetIpDisable                             0x08002705   Thumb Code    20  wh_nb73.o(i.GetIpDisable)
    i.GetIpEnable                            0x0800271c   Section        0  wh_nb73.o(i.GetIpEnable)
    i.GetIpFunc                              0x08002730   Section        0  wh_nb73.o(i.GetIpFunc)
    GetIpFunc                                0x08002731   Thumb Code    32  wh_nb73.o(i.GetIpFunc)
    i.GetOpenAbnormal                        0x08002754   Section        0  modbus.o(i.GetOpenAbnormal)
    GetOpenAbnormal                          0x08002755   Thumb Code    10  modbus.o(i.GetOpenAbnormal)
    i.GetOpenAlarm                           0x08002764   Section        0  modbus.o(i.GetOpenAlarm)
    GetOpenAlarm                             0x08002765   Thumb Code    10  modbus.o(i.GetOpenAlarm)
    i.GetOpenCloseFlag                       0x08002774   Section        0  modbus.o(i.GetOpenCloseFlag)
    GetOpenCloseFlag                         0x08002775   Thumb Code    46  modbus.o(i.GetOpenCloseFlag)
    i.GetOpenCloseTime                       0x080027b0   Section        0  modbus.o(i.GetOpenCloseTime)
    GetOpenCloseTime                         0x080027b1   Thumb Code    52  modbus.o(i.GetOpenCloseTime)
    i.GetOpenCloseUnixH                      0x080027f0   Section        0  modbus.o(i.GetOpenCloseUnixH)
    GetOpenCloseUnixH                        0x080027f1   Thumb Code    50  modbus.o(i.GetOpenCloseUnixH)
    i.GetOpenCloseUnixL                      0x08002830   Section        0  modbus.o(i.GetOpenCloseUnixL)
    GetOpenCloseUnixL                        0x08002831   Thumb Code    96  modbus.o(i.GetOpenCloseUnixL)
    i.GetPCI                                 0x0800289c   Section        0  wh_nb73.o(i.GetPCI)
    GetPCI                                   0x0800289d   Thumb Code    32  wh_nb73.o(i.GetPCI)
    i.GetParseProtocolStatus                 0x080028cc   Section        0  protocol.o(i.GetParseProtocolStatus)
    GetParseProtocolStatus                   0x080028cd   Thumb Code    50  protocol.o(i.GetParseProtocolStatus)
    i.GetPciDisable                          0x08002908   Section        0  wh_nb73.o(i.GetPciDisable)
    GetPciDisable                            0x08002909   Thumb Code    18  wh_nb73.o(i.GetPciDisable)
    i.GetPciEnable                           0x08002920   Section        0  wh_nb73.o(i.GetPciEnable)
    i.GetPciFunc                             0x08002934   Section        0  wh_nb73.o(i.GetPciFunc)
    GetPciFunc                               0x08002935   Thumb Code    32  wh_nb73.o(i.GetPciFunc)
    i.GetRSSI                                0x08002958   Section        0  wh_nb73.o(i.GetRSSI)
    GetRSSI                                  0x08002959   Thumb Code    32  wh_nb73.o(i.GetRSSI)
    i.GetRTC_TimeH                           0x08002984   Section        0  modbus.o(i.GetRTC_TimeH)
    GetRTC_TimeH                             0x08002985   Thumb Code     8  modbus.o(i.GetRTC_TimeH)
    i.GetRTC_TimeL                           0x08002990   Section        0  modbus.o(i.GetRTC_TimeL)
    GetRTC_TimeL                             0x08002991   Thumb Code    10  modbus.o(i.GetRTC_TimeL)
    i.GetRssiDisable                         0x080029a0   Section        0  wh_nb73.o(i.GetRssiDisable)
    GetRssiDisable                           0x080029a1   Thumb Code    18  wh_nb73.o(i.GetRssiDisable)
    i.GetRssiEnable                          0x080029b8   Section        0  wh_nb73.o(i.GetRssiEnable)
    i.GetRssiFunc                            0x080029cc   Section        0  wh_nb73.o(i.GetRssiFunc)
    GetRssiFunc                              0x080029cd   Thumb Code    32  wh_nb73.o(i.GetRssiFunc)
    i.GetRtcTime                             0x080029f0   Section        0  isl1208.o(i.GetRtcTime)
    i.GetSlaveId                             0x08002ad4   Section        0  modbus.o(i.GetSlaveId)
    GetSlaveId                               0x08002ad5   Thumb Code     6  modbus.o(i.GetSlaveId)
    i.GetTemAbnormal                         0x08002ae0   Section        0  modbus.o(i.GetTemAbnormal)
    GetTemAbnormal                           0x08002ae1   Thumb Code     8  modbus.o(i.GetTemAbnormal)
    i.GetTemDiffAlarm                        0x08002aec   Section        0  modbus.o(i.GetTemDiffAlarm)
    GetTemDiffAlarm                          0x08002aed   Thumb Code     8  modbus.o(i.GetTemDiffAlarm)
    i.GetTemSimpleInterval                   0x08002af8   Section        0  modbus.o(i.GetTemSimpleInterval)
    GetTemSimpleInterval                     0x08002af9   Thumb Code     8  modbus.o(i.GetTemSimpleInterval)
    i.GetTempIdDisable                       0x08002b04   Section        0  protocol.o(i.GetTempIdDisable)
    GetTempIdDisable                         0x08002b05   Thumb Code    18  protocol.o(i.GetTempIdDisable)
    i.GetTempIdEnable                        0x08002b1c   Section        0  protocol.o(i.GetTempIdEnable)
    GetTempIdEnable                          0x08002b1d   Thumb Code    16  protocol.o(i.GetTempIdEnable)
    i.GetTempIdFun                           0x08002b30   Section        0  protocol.o(i.GetTempIdFun)
    GetTempIdFun                             0x08002b31   Thumb Code    32  protocol.o(i.GetTempIdFun)
    i.GetTempValDisable                      0x08002b54   Section        0  protocol.o(i.GetTempValDisable)
    GetTempValDisable                        0x08002b55   Thumb Code    18  protocol.o(i.GetTempValDisable)
    i.GetTempValEnable                       0x08002b6c   Section        0  protocol.o(i.GetTempValEnable)
    GetTempValEnable                         0x08002b6d   Thumb Code    16  protocol.o(i.GetTempValEnable)
    i.GetTempValFun                          0x08002b80   Section        0  protocol.o(i.GetTempValFun)
    GetTempValFun                            0x08002b81   Thumb Code    32  protocol.o(i.GetTempValFun)
    i.GetUniqueID_HLLL                       0x08002ba4   Section        0  modbus.o(i.GetUniqueID_HLLL)
    GetUniqueID_HLLL                         0x08002ba5   Thumb Code    16  modbus.o(i.GetUniqueID_HLLL)
    i.GetUniqueID_LHLL                       0x08002bb8   Section        0  modbus.o(i.GetUniqueID_LHLL)
    GetUniqueID_LHLL                         0x08002bb9   Thumb Code    14  modbus.o(i.GetUniqueID_LHLL)
    i.GetUniqueID_LLHL                       0x08002bcc   Section        0  modbus.o(i.GetUniqueID_LLHL)
    GetUniqueID_LLHL                         0x08002bcd   Thumb Code    14  modbus.o(i.GetUniqueID_LLHL)
    i.GetUniqueID_LLLH                       0x08002be0   Section        0  modbus.o(i.GetUniqueID_LLLH)
    GetUniqueID_LLLH                         0x08002be1   Thumb Code    16  modbus.o(i.GetUniqueID_LLLH)
    i.GetWaterTemp                           0x08002bf4   Section        0  modbus.o(i.GetWaterTemp)
    GetWaterTemp                             0x08002bf5   Thumb Code    60  modbus.o(i.GetWaterTemp)
    i.GetWaterTemp                           0x08002c3c   Section        0  cj2301.o(i.GetWaterTemp)
    GetWaterTemp                             0x08002c3d   Thumb Code   196  cj2301.o(i.GetWaterTemp)
    i.GetWaterTempDiff                       0x08002d0c   Section        0  modbus.o(i.GetWaterTempDiff)
    GetWaterTempDiff                         0x08002d0d   Thumb Code    58  modbus.o(i.GetWaterTempDiff)
    i.GetWlStatusDisable                     0x08002d50   Section        0  protocol.o(i.GetWlStatusDisable)
    GetWlStatusDisable                       0x08002d51   Thumb Code    18  protocol.o(i.GetWlStatusDisable)
    i.GetWlStatusEnable                      0x08002d68   Section        0  protocol.o(i.GetWlStatusEnable)
    GetWlStatusEnable                        0x08002d69   Thumb Code    16  protocol.o(i.GetWlStatusEnable)
    i.GetWlStatusFun                         0x08002d7c   Section        0  protocol.o(i.GetWlStatusFun)
    GetWlStatusFun                           0x08002d7d   Thumb Code    32  protocol.o(i.GetWlStatusFun)
    i.GetWl_Diff                             0x08002da0   Section        0  modbus.o(i.GetWl_Diff)
    GetWl_Diff                               0x08002da1   Thumb Code    42  modbus.o(i.GetWl_Diff)
    i.GetWl_Max                              0x08002dca   Section        0  modbus.o(i.GetWl_Max)
    GetWl_Max                                0x08002dcb   Thumb Code    32  modbus.o(i.GetWl_Max)
    i.GetWl_Min                              0x08002dea   Section        0  modbus.o(i.GetWl_Min)
    GetWl_Min                                0x08002deb   Thumb Code    32  modbus.o(i.GetWl_Min)
    i.GpioInit                               0x08002e0c   Section        0  init.o(i.GpioInit)
    GpioInit                                 0x08002e0d   Thumb Code   194  init.o(i.GpioInit)
    i.HardFault_Handler                      0x08002edc   Section        0  gd32f10x_it.o(i.HardFault_Handler)
    i.HostAdd                                0x08002ee0   Section        0  hw_uart.o(i.HostAdd)
    i.HostCheck                              0x08002f2c   Section        0  hw_uart.o(i.HostCheck)
    i.HostGetData                            0x08002f40   Section        0  hw_uart.o(i.HostGetData)
    i.HostUartSendBuf                        0x08002f94   Section        0  hw_uart.o(i.HostUartSendBuf)
    i.I2C_Init                               0x08002fd0   Section        0  hw_i2c.o(i.I2C_Init)
    i.IMEI_TO_BCD                            0x08003014   Section        0  wh_nb73.o(i.IMEI_TO_BCD)
    IMEI_TO_BCD                              0x08003015   Thumb Code    48  wh_nb73.o(i.IMEI_TO_BCD)
    i.Isl1208GetTime                         0x08003048   Section        0  isl1208.o(i.Isl1208GetTime)
    i.Isl1208Init                            0x080030c8   Section        0  isl1208.o(i.Isl1208Init)
    i.Isl1208Read                            0x08003118   Section        0  isl1208.o(i.Isl1208Read)
    Isl1208Read                              0x08003119   Thumb Code   226  isl1208.o(i.Isl1208Read)
    i.Isl1208Write                           0x08003200   Section        0  isl1208.o(i.Isl1208Write)
    Isl1208Write                             0x08003201   Thumb Code   152  isl1208.o(i.Isl1208Write)
    i.MCU_Init                               0x0800329c   Section        0  init.o(i.MCU_Init)
    i.MemManage_Handler                      0x080033a0   Section        0  gd32f10x_it.o(i.MemManage_Handler)
    i.ModbusProtocol                         0x080033a4   Section        0  modbus.o(i.ModbusProtocol)
    i.ModbusSend                             0x0800340c   Section        0  modbus.o(i.ModbusSend)
    ModbusSend                               0x0800340d   Thumb Code    16  modbus.o(i.ModbusSend)
    i.ModbusTimerAct                         0x0800341c   Section        0  modbus.o(i.ModbusTimerAct)
    i.ModbusTimerDisable                     0x0800344c   Section        0  modbus.o(i.ModbusTimerDisable)
    ModbusTimerDisable                       0x0800344d   Thumb Code    10  modbus.o(i.ModbusTimerDisable)
    i.ModbusTimerEnable                      0x0800345c   Section        0  modbus.o(i.ModbusTimerEnable)
    ModbusTimerEnable                        0x0800345d   Thumb Code    12  modbus.o(i.ModbusTimerEnable)
    i.Modbus_Crc_Compute                     0x0800346c   Section        0  modbus.o(i.Modbus_Crc_Compute)
    i.NB_Control                             0x0800349c   Section        0  wh_nb73.o(i.NB_Control)
    i.NMI_Handler                            0x080034d8   Section        0  gd32f10x_it.o(i.NMI_Handler)
    i.NbAdd                                  0x080034dc   Section        0  hw_uart.o(i.NbAdd)
    i.NbApplication                          0x08003530   Section        0  wh_nb73.o(i.NbApplication)
    NbApplication                            0x08003531   Thumb Code    58  wh_nb73.o(i.NbApplication)
    i.NbCheck                                0x08003574   Section        0  hw_uart.o(i.NbCheck)
    i.NbGetData                              0x08003588   Section        0  hw_uart.o(i.NbGetData)
    i.NbParse                                0x080035e4   Section        0  wh_nb73.o(i.NbParse)
    NbParse                                  0x080035e5   Thumb Code    60  wh_nb73.o(i.NbParse)
    i.NbReset                                0x08003644   Section        0  wh_nb73.o(i.NbReset)
    NbReset                                  0x08003645   Thumb Code   216  wh_nb73.o(i.NbReset)
    i.NbResetDisable                         0x08003734   Section        0  wh_nb73.o(i.NbResetDisable)
    NbResetDisable                           0x08003735   Thumb Code    18  wh_nb73.o(i.NbResetDisable)
    i.NbResetEnable                          0x0800374c   Section        0  wh_nb73.o(i.NbResetEnable)
    i.NbResetFunc                            0x08003760   Section        0  wh_nb73.o(i.NbResetFunc)
    NbResetFunc                              0x08003761   Thumb Code    32  wh_nb73.o(i.NbResetFunc)
    i.NbUartSendBuf                          0x08003784   Section        0  hw_uart.o(i.NbUartSendBuf)
    i.PakAction                              0x080037cc   Section        0  commucateslave.o(i.PakAction)
    PakAction                                0x080037cd   Thumb Code    32  commucateslave.o(i.PakAction)
    i.PakStuctInit                           0x080037f0   Section        0  commucateslave.o(i.PakStuctInit)
    i.PakTimerStart                          0x08003828   Section        0  commucateslave.o(i.PakTimerStart)
    PakTimerStart                            0x08003829   Thumb Code    12  commucateslave.o(i.PakTimerStart)
    i.PakTimerStop                           0x08003838   Section        0  commucateslave.o(i.PakTimerStop)
    PakTimerStop                             0x08003839   Thumb Code    10  commucateslave.o(i.PakTimerStop)
    i.ParseConnectServer                     0x08003848   Section        0  wh_nb73.o(i.ParseConnectServer)
    ParseConnectServer                       0x08003849   Thumb Code    90  wh_nb73.o(i.ParseConnectServer)
    i.ParseCreateSocket                      0x080038c0   Section        0  wh_nb73.o(i.ParseCreateSocket)
    ParseCreateSocket                        0x080038c1   Thumb Code   134  wh_nb73.o(i.ParseCreateSocket)
    i.ParseGetAttach                         0x08003968   Section        0  wh_nb73.o(i.ParseGetAttach)
    ParseGetAttach                           0x08003969   Thumb Code   168  wh_nb73.o(i.ParseGetAttach)
    i.ParseGetCCID                           0x08003a20   Section        0  wh_nb73.o(i.ParseGetCCID)
    ParseGetCCID                             0x08003a21   Thumb Code   152  wh_nb73.o(i.ParseGetCCID)
    i.ParseGetImei                           0x08003ad8   Section        0  wh_nb73.o(i.ParseGetImei)
    ParseGetImei                             0x08003ad9   Thumb Code   158  wh_nb73.o(i.ParseGetImei)
    i.ParseGetIp                             0x08003b98   Section        0  wh_nb73.o(i.ParseGetIp)
    ParseGetIp                               0x08003b99   Thumb Code    90  wh_nb73.o(i.ParseGetIp)
    i.ParseGetPCI                            0x08003c10   Section        0  wh_nb73.o(i.ParseGetPCI)
    ParseGetPCI                              0x08003c11   Thumb Code   244  wh_nb73.o(i.ParseGetPCI)
    i.ParseGetRSSI                           0x08003d28   Section        0  wh_nb73.o(i.ParseGetRSSI)
    ParseGetRSSI                             0x08003d29   Thumb Code   240  wh_nb73.o(i.ParseGetRSSI)
    i.ParsePro                               0x08003e28   Section        0  protocol.o(i.ParsePro)
    i.ParseReadData                          0x08003f9c   Section        0  wh_nb73.o(i.ParseReadData)
    ParseReadData                            0x08003f9d   Thumb Code   190  wh_nb73.o(i.ParseReadData)
    i.ParseSendData                          0x08004070   Section        0  wh_nb73.o(i.ParseSendData)
    ParseSendData                            0x08004071   Thumb Code    72  wh_nb73.o(i.ParseSendData)
    i.PendSV_Handler                         0x080040bc   Section        0  gd32f10x_it.o(i.PendSV_Handler)
    i.ProCheckRunFunc                        0x080040c0   Section        0  protocol.o(i.ProCheckRunFunc)
    ProCheckRunFunc                          0x080040c1   Thumb Code   396  protocol.o(i.ProCheckRunFunc)
    i.ProtocolTask                           0x08004264   Section        0  protocol.o(i.ProtocolTask)
    i.RcuClockInit                           0x08004294   Section        0  init.o(i.RcuClockInit)
    RcuClockInit                             0x08004295   Thumb Code    92  init.o(i.RcuClockInit)
    i.ReadBit                                0x080042f4   Section        0  cj2301.o(i.ReadBit)
    i.ReadByte                               0x08004344   Section        0  cj2301.o(i.ReadByte)
    i.ReadData                               0x08004370   Section        0  wh_nb73.o(i.ReadData)
    ReadData                                 0x08004371   Thumb Code    40  wh_nb73.o(i.ReadData)
    i.ReadData2Byte                          0x080043b0   Section        0  wh_nb73.o(i.ReadData2Byte)
    ReadData2Byte                            0x080043b1   Thumb Code   938  wh_nb73.o(i.ReadData2Byte)
    i.ReadDataDisable                        0x0800477c   Section        0  wh_nb73.o(i.ReadDataDisable)
    ReadDataDisable                          0x0800477d   Thumb Code    20  wh_nb73.o(i.ReadDataDisable)
    i.ReadDataFunc                           0x08004794   Section        0  wh_nb73.o(i.ReadDataFunc)
    ReadDataFunc                             0x08004795   Thumb Code    32  wh_nb73.o(i.ReadDataFunc)
    i.ReceParse                              0x080047b8   Section        0  commucateslave.o(i.ReceParse)
    i.ResBuffAdd                             0x080048c8   Section        0  wh_nb73.o(i.ResBuffAdd)
    ResBuffAdd                               0x080048c9   Thumb Code    54  wh_nb73.o(i.ResBuffAdd)
    i.ResponsePak                            0x0800490c   Section        0  commucateslave.o(i.ResponsePak)
    ResponsePak                              0x0800490d   Thumb Code   132  commucateslave.o(i.ResponsePak)
    i.RevDataRead                            0x08004994   Section        0  wh_nb73.o(i.RevDataRead)
    RevDataRead                              0x08004995   Thumb Code   106  wh_nb73.o(i.RevDataRead)
    i.RtcSetTime                             0x08004a14   Section        0  isl1208.o(i.RtcSetTime)
    i.RunCreateSocket                        0x08004a8c   Section        0  wh_nb73.o(i.RunCreateSocket)
    RunCreateSocket                          0x08004a8d   Thumb Code   182  wh_nb73.o(i.RunCreateSocket)
    i.RunGetAttach                           0x08004b50   Section        0  wh_nb73.o(i.RunGetAttach)
    RunGetAttach                             0x08004b51   Thumb Code   110  wh_nb73.o(i.RunGetAttach)
    i.RunGetCCID                             0x08004bc8   Section        0  wh_nb73.o(i.RunGetCCID)
    RunGetCCID                               0x08004bc9   Thumb Code   122  wh_nb73.o(i.RunGetCCID)
    i.RunGetHumiId                           0x08004c50   Section        0  protocol.o(i.RunGetHumiId)
    RunGetHumiId                             0x08004c51   Thumb Code   152  protocol.o(i.RunGetHumiId)
    i.RunGetHumiVal                          0x08004cf8   Section        0  protocol.o(i.RunGetHumiVal)
    RunGetHumiVal                            0x08004cf9   Thumb Code   130  protocol.o(i.RunGetHumiVal)
    i.RunGetImei                             0x08004d8c   Section        0  wh_nb73.o(i.RunGetImei)
    RunGetImei                               0x08004d8d   Thumb Code   154  wh_nb73.o(i.RunGetImei)
    i.RunGetIp                               0x08004e38   Section        0  wh_nb73.o(i.RunGetIp)
    RunGetIp                                 0x08004e39   Thumb Code   122  wh_nb73.o(i.RunGetIp)
    i.RunGetPCI                              0x08004ec0   Section        0  wh_nb73.o(i.RunGetPCI)
    RunGetPCI                                0x08004ec1   Thumb Code   122  wh_nb73.o(i.RunGetPCI)
    i.RunGetRSSI                             0x08004f48   Section        0  wh_nb73.o(i.RunGetRSSI)
    RunGetRSSI                               0x08004f49   Thumb Code    98  wh_nb73.o(i.RunGetRSSI)
    i.RunGetTempId                           0x08004fb4   Section        0  protocol.o(i.RunGetTempId)
    RunGetTempId                             0x08004fb5   Thumb Code   150  protocol.o(i.RunGetTempId)
    i.RunGetTempVal                          0x0800505c   Section        0  protocol.o(i.RunGetTempVal)
    RunGetTempVal                            0x0800505d   Thumb Code   130  protocol.o(i.RunGetTempVal)
    i.RunGetWlStatus                         0x080050f0   Section        0  protocol.o(i.RunGetWlStatus)
    RunGetWlStatus                           0x080050f1   Thumb Code   120  protocol.o(i.RunGetWlStatus)
    i.RunReadData                            0x08005174   Section        0  wh_nb73.o(i.RunReadData)
    RunReadData                              0x08005175   Thumb Code   154  wh_nb73.o(i.RunReadData)
    i.RunSendCommuncationStatus              0x08005220   Section        0  protocol.o(i.RunSendCommuncationStatus)
    RunSendCommuncationStatus                0x08005221   Thumb Code   110  protocol.o(i.RunSendCommuncationStatus)
    i.RunSendData                            0x0800529c   Section        0  wh_nb73.o(i.RunSendData)
    RunSendData                              0x0800529d   Thumb Code   154  wh_nb73.o(i.RunSendData)
    i.RunSendMainBoardInfo                   0x08005348   Section        0  protocol.o(i.RunSendMainBoardInfo)
    RunSendMainBoardInfo                     0x08005349   Thumb Code   250  protocol.o(i.RunSendMainBoardInfo)
    i.RunSendSignal                          0x08005458   Section        0  protocol.o(i.RunSendSignal)
    RunSendSignal                            0x08005459   Thumb Code    92  protocol.o(i.RunSendSignal)
    i.RunSetAbnormal                         0x080054c0   Section        0  protocol.o(i.RunSetAbnormal)
    RunSetAbnormal                           0x080054c1   Thumb Code   162  protocol.o(i.RunSetAbnormal)
    i.RunSetSelfTempHumi                     0x08005570   Section        0  protocol.o(i.RunSetSelfTempHumi)
    RunSetSelfTempHumi                       0x08005571   Thumb Code  1098  protocol.o(i.RunSetSelfTempHumi)
    i.SVC_Handler                            0x080059c0   Section        0  gd32f10x_it.o(i.SVC_Handler)
    i.SenData                                0x080059c4   Section        0  wh_nb73.o(i.SenData)
    SenData                                  0x080059c5   Thumb Code    22  wh_nb73.o(i.SenData)
    i.SendCommuncationStatusDisable          0x080059e4   Section        0  protocol.o(i.SendCommuncationStatusDisable)
    SendCommuncationStatusDisable            0x080059e5   Thumb Code    20  protocol.o(i.SendCommuncationStatusDisable)
    i.SendCommuncationStatusEnable           0x080059fc   Section        0  protocol.o(i.SendCommuncationStatusEnable)
    SendCommuncationStatusEnable             0x080059fd   Thumb Code    16  protocol.o(i.SendCommuncationStatusEnable)
    i.SendCommuncationStatusFun              0x08005a10   Section        0  protocol.o(i.SendCommuncationStatusFun)
    SendCommuncationStatusFun                0x08005a11   Thumb Code    32  protocol.o(i.SendCommuncationStatusFun)
    i.SendDataCheck                          0x08005a34   Section        0  wh_nb73.o(i.SendDataCheck)
    SendDataCheck                            0x08005a35   Thumb Code   534  wh_nb73.o(i.SendDataCheck)
    i.SendDataDisable                        0x08005cac   Section        0  wh_nb73.o(i.SendDataDisable)
    SendDataDisable                          0x08005cad   Thumb Code    18  wh_nb73.o(i.SendDataDisable)
    i.SendDataEnable                         0x08005cc4   Section        0  wh_nb73.o(i.SendDataEnable)
    i.SendDataFunc                           0x08005cd8   Section        0  wh_nb73.o(i.SendDataFunc)
    SendDataFunc                             0x08005cd9   Thumb Code    30  wh_nb73.o(i.SendDataFunc)
    i.SendMainBoardInfoDisable               0x08005cfc   Section        0  protocol.o(i.SendMainBoardInfoDisable)
    SendMainBoardInfoDisable                 0x08005cfd   Thumb Code    20  protocol.o(i.SendMainBoardInfoDisable)
    i.SendMainBoardInfoEnable                0x08005d14   Section        0  protocol.o(i.SendMainBoardInfoEnable)
    i.SendMainBoardInfoFun                   0x08005d28   Section        0  protocol.o(i.SendMainBoardInfoFun)
    SendMainBoardInfoFun                     0x08005d29   Thumb Code    32  protocol.o(i.SendMainBoardInfoFun)
    i.SendRegCheck                           0x08005d4c   Section        0  wh_nb73.o(i.SendRegCheck)
    SendRegCheck                             0x08005d4d   Thumb Code   276  wh_nb73.o(i.SendRegCheck)
    i.SendSignalDisable                      0x08005e70   Section        0  protocol.o(i.SendSignalDisable)
    SendSignalDisable                        0x08005e71   Thumb Code    18  protocol.o(i.SendSignalDisable)
    i.SendSignalEnable                       0x08005e88   Section        0  protocol.o(i.SendSignalEnable)
    SendSignalEnable                         0x08005e89   Thumb Code    16  protocol.o(i.SendSignalEnable)
    i.SendSignalFun                          0x08005e9c   Section        0  protocol.o(i.SendSignalFun)
    SendSignalFun                            0x08005e9d   Thumb Code    32  protocol.o(i.SendSignalFun)
    i.SetAbnormalDisable                     0x08005ec0   Section        0  protocol.o(i.SetAbnormalDisable)
    SetAbnormalDisable                       0x08005ec1   Thumb Code    18  protocol.o(i.SetAbnormalDisable)
    i.SetAbnormalEnable                      0x08005ed8   Section        0  protocol.o(i.SetAbnormalEnable)
    SetAbnormalEnable                        0x08005ed9   Thumb Code    16  protocol.o(i.SetAbnormalEnable)
    i.SetAbnormalFun                         0x08005eec   Section        0  protocol.o(i.SetAbnormalFun)
    SetAbnormalFun                           0x08005eed   Thumb Code    30  protocol.o(i.SetAbnormalFun)
    i.SetBaudRateH                           0x08005f10   Section        0  modbus.o(i.SetBaudRateH)
    SetBaudRateH                             0x08005f11   Thumb Code    16  modbus.o(i.SetBaudRateH)
    i.SetBaudRateL                           0x08005f24   Section        0  modbus.o(i.SetBaudRateL)
    SetBaudRateL                             0x08005f25   Thumb Code    24  modbus.o(i.SetBaudRateL)
    i.SetCh3_Set                             0x08005f40   Section        0  modbus.o(i.SetCh3_Set)
    SetCh3_Set                               0x08005f41   Thumb Code    26  modbus.o(i.SetCh3_Set)
    i.SetCloseAbnormal                       0x08005f60   Section        0  modbus.o(i.SetCloseAbnormal)
    SetCloseAbnormal                         0x08005f61   Thumb Code    14  modbus.o(i.SetCloseAbnormal)
    i.SetCloseAlarm                          0x08005f74   Section        0  modbus.o(i.SetCloseAlarm)
    SetCloseAlarm                            0x08005f75   Thumb Code    14  modbus.o(i.SetCloseAlarm)
    i.SetHumiAbnormal                        0x08005f88   Section        0  modbus.o(i.SetHumiAbnormal)
    SetHumiAbnormal                          0x08005f89   Thumb Code     8  modbus.o(i.SetHumiAbnormal)
    i.SetOpenAbnormal                        0x08005f94   Section        0  modbus.o(i.SetOpenAbnormal)
    SetOpenAbnormal                          0x08005f95   Thumb Code    16  modbus.o(i.SetOpenAbnormal)
    i.SetOpenAlarm                           0x08005fa8   Section        0  modbus.o(i.SetOpenAlarm)
    SetOpenAlarm                             0x08005fa9   Thumb Code    14  modbus.o(i.SetOpenAlarm)
    i.SetRtcH                                0x08005fbc   Section        0  modbus.o(i.SetRtcH)
    SetRtcH                                  0x08005fbd   Thumb Code     6  modbus.o(i.SetRtcH)
    i.SetRtcL                                0x08005fc8   Section        0  modbus.o(i.SetRtcL)
    SetRtcL                                  0x08005fc9   Thumb Code    34  modbus.o(i.SetRtcL)
    i.SetSelfHumi                            0x08005ff8   Section        0  modbus.o(i.SetSelfHumi)
    SetSelfHumi                              0x08005ff9   Thumb Code    18  modbus.o(i.SetSelfHumi)
    i.SetSelfTemp1                           0x08006014   Section        0  modbus.o(i.SetSelfTemp1)
    SetSelfTemp1                             0x08006015   Thumb Code    40  modbus.o(i.SetSelfTemp1)
    i.SetSelfTemp2                           0x08006044   Section        0  modbus.o(i.SetSelfTemp2)
    SetSelfTemp2                             0x08006045   Thumb Code    40  modbus.o(i.SetSelfTemp2)
    i.SetSelfTemp3                           0x08006074   Section        0  modbus.o(i.SetSelfTemp3)
    SetSelfTemp3                             0x08006075   Thumb Code    40  modbus.o(i.SetSelfTemp3)
    i.SetSelfTemp4                           0x080060a4   Section        0  modbus.o(i.SetSelfTemp4)
    SetSelfTemp4                             0x080060a5   Thumb Code    40  modbus.o(i.SetSelfTemp4)
    i.SetSelfTemp5                           0x080060d4   Section        0  modbus.o(i.SetSelfTemp5)
    SetSelfTemp5                             0x080060d5   Thumb Code    40  modbus.o(i.SetSelfTemp5)
    i.SetSelfTemp6                           0x08006104   Section        0  modbus.o(i.SetSelfTemp6)
    SetSelfTemp6                             0x08006105   Thumb Code    40  modbus.o(i.SetSelfTemp6)
    i.SetSelfTempHumiDisable                 0x08006134   Section        0  protocol.o(i.SetSelfTempHumiDisable)
    SetSelfTempHumiDisable                   0x08006135   Thumb Code    18  protocol.o(i.SetSelfTempHumiDisable)
    i.SetSelfTempHumiEnable                  0x0800614c   Section        0  protocol.o(i.SetSelfTempHumiEnable)
    SetSelfTempHumiEnable                    0x0800614d   Thumb Code    16  protocol.o(i.SetSelfTempHumiEnable)
    i.SetSelfTempHumiFun                     0x08006160   Section        0  protocol.o(i.SetSelfTempHumiFun)
    SetSelfTempHumiFun                       0x08006161   Thumb Code    32  protocol.o(i.SetSelfTempHumiFun)
    i.SetSlaveID                             0x08006184   Section        0  modbus.o(i.SetSlaveID)
    SetSlaveID                               0x08006185   Thumb Code    18  modbus.o(i.SetSlaveID)
    i.SetTemAbnormal                         0x0800619c   Section        0  modbus.o(i.SetTemAbnormal)
    SetTemAbnormal                           0x0800619d   Thumb Code    16  modbus.o(i.SetTemAbnormal)
    i.SetTemDiffAlarm                        0x080061b0   Section        0  modbus.o(i.SetTemDiffAlarm)
    SetTemDiffAlarm                          0x080061b1   Thumb Code    16  modbus.o(i.SetTemDiffAlarm)
    i.SetTemSimpleInterval                   0x080061c4   Section        0  modbus.o(i.SetTemSimpleInterval)
    SetTemSimpleInterval                     0x080061c5   Thumb Code    16  modbus.o(i.SetTemSimpleInterval)
    i.SignalCheck                            0x080061d8   Section        0  hw_exit.o(i.SignalCheck)
    i.SignalCheckLed                         0x080067c0   Section        0  wh_nb73.o(i.SignalCheckLed)
    SignalCheckLed                           0x080067c1   Thumb Code     2  wh_nb73.o(i.SignalCheckLed)
    i.SignalTimerDisable                     0x080067c4   Section        0  hw_timer.o(i.SignalTimerDisable)
    i.SignalTimerEnable                      0x080067d4   Section        0  hw_timer.o(i.SignalTimerEnable)
    i.SignalTimerInit                        0x080067e4   Section        0  hw_timer.o(i.SignalTimerInit)
    i.SnedBufBuild                           0x08006830   Section        0  wh_nb73.o(i.SnedBufBuild)
    SnedBufBuild                             0x08006831   Thumb Code  1526  wh_nb73.o(i.SnedBufBuild)
    i.StoreConfStore                         0x08006e38   Section        0  hw_fmc.o(i.StoreConfStore)
    i.StoreConfUpdate                        0x08006e50   Section        0  hw_fmc.o(i.StoreConfUpdate)
    i.StoreInfoAdd                           0x08006e84   Section        0  hw_fmc.o(i.StoreInfoAdd)
    i.StoreInfoCheck                         0x08007000   Section        0  hw_fmc.o(i.StoreInfoCheck)
    i.StorePageErase                         0x08007074   Section        0  hw_fmc.o(i.StorePageErase)
    StorePageErase                           0x08007075   Thumb Code    68  hw_fmc.o(i.StorePageErase)
    i.SysTick_Handler                        0x080070b8   Section        0  gd32f10x_it.o(i.SysTick_Handler)
    i.SystemInit                             0x080070bc   Section        0  system_gd32f10x.o(i.SystemInit)
    i.TIMER1_IRQHandler                      0x08007140   Section        0  hw_timer.o(i.TIMER1_IRQHandler)
    i.TIMER2_IRQHandler                      0x080072b8   Section        0  hw_timer.o(i.TIMER2_IRQHandler)
    i.Timer_1ms_Init                         0x080072e4   Section        0  hw_timer.o(i.Timer_1ms_Init)
    i.USART0_IRQHandler                      0x0800733c   Section        0  hw_uart.o(i.USART0_IRQHandler)
    i.USART1_IRQHandler                      0x0800736c   Section        0  hw_uart.o(i.USART1_IRQHandler)
    i.USART2_IRQHandler                      0x080073bc   Section        0  hw_uart.o(i.USART2_IRQHandler)
    i.UTC_to_Unix                            0x080073ec   Section        0  isl1208.o(i.UTC_to_Unix)
    i.UartCommuncateInit                     0x08007428   Section        0  hw_uart.o(i.UartCommuncateInit)
    UartCommuncateInit                       0x08007429   Thumb Code   130  hw_uart.o(i.UartCommuncateInit)
    i.UartHostInit                           0x080074b4   Section        0  hw_uart.o(i.UartHostInit)
    UartHostInit                             0x080074b5   Thumb Code   136  hw_uart.o(i.UartHostInit)
    i.UartHostReinit                         0x08007548   Section        0  hw_uart.o(i.UartHostReinit)
    i.UartInit                               0x08007570   Section        0  hw_uart.o(i.UartInit)
    i.UartNbInit                             0x08007580   Section        0  hw_uart.o(i.UartNbInit)
    UartNbInit                               0x08007581   Thumb Code   130  hw_uart.o(i.UartNbInit)
    i.Unix_to_UTC                            0x0800760c   Section        0  isl1208.o(i.Unix_to_UTC)
    i.UsageFault_Handler                     0x08007698   Section        0  gd32f10x_it.o(i.UsageFault_Handler)
    i.VarInit                                0x0800769c   Section        0  init.o(i.VarInit)
    VarInit                                  0x0800769d   Thumb Code   176  init.o(i.VarInit)
    i.WriteStoreConf                         0x08007760   Section        0  hw_fmc.o(i.WriteStoreConf)
    i.WriteStoreInfo                         0x080077bc   Section        0  hw_fmc.o(i.WriteStoreInfo)
    i.__0printf                              0x08007818   Section        0  printfa.o(i.__0printf)
    i.__scatterload_copy                     0x08007838   Section       14  handlers.o(i.__scatterload_copy)
    i.__scatterload_null                     0x08007846   Section        2  handlers.o(i.__scatterload_null)
    i.__scatterload_zeroinit                 0x08007848   Section       14  handlers.o(i.__scatterload_zeroinit)
    i._fp_digits                             0x08007858   Section        0  printfa.o(i._fp_digits)
    _fp_digits                               0x08007859   Thumb Code   366  printfa.o(i._fp_digits)
    i._printf_core                           0x080079dc   Section        0  printfa.o(i._printf_core)
    _printf_core                             0x080079dd   Thumb Code  1744  printfa.o(i._printf_core)
    i._printf_post_padding                   0x080080b8   Section        0  printfa.o(i._printf_post_padding)
    _printf_post_padding                     0x080080b9   Thumb Code    36  printfa.o(i._printf_post_padding)
    i._printf_pre_padding                    0x080080dc   Section        0  printfa.o(i._printf_pre_padding)
    _printf_pre_padding                      0x080080dd   Thumb Code    46  printfa.o(i._printf_pre_padding)
    i.delay_1ms                              0x0800810c   Section        0  systick.o(i.delay_1ms)
    i.delay_1us                              0x0800816c   Section        0  systick.o(i.delay_1us)
    i.exti_init                              0x080081cc   Section        0  gd32f10x_exti.o(i.exti_init)
    i.exti_interrupt_flag_clear              0x08008288   Section        0  gd32f10x_exti.o(i.exti_interrupt_flag_clear)
    i.exti_interrupt_flag_get                0x08008294   Section        0  gd32f10x_exti.o(i.exti_interrupt_flag_get)
    i.fmc_bank0_ready_wait                   0x080082ac   Section        0  gd32f10x_fmc.o(i.fmc_bank0_ready_wait)
    i.fmc_bank0_state_get                    0x080082d0   Section        0  gd32f10x_fmc.o(i.fmc_bank0_state_get)
    i.fmc_bank1_ready_wait                   0x08008300   Section        0  gd32f10x_fmc.o(i.fmc_bank1_ready_wait)
    i.fmc_bank1_state_get                    0x08008324   Section        0  gd32f10x_fmc.o(i.fmc_bank1_state_get)
    i.fmc_flag_clear                         0x08008354   Section        0  gd32f10x_fmc.o(i.fmc_flag_clear)
    i.fmc_lock                               0x08008374   Section        0  gd32f10x_fmc.o(i.fmc_lock)
    i.fmc_page_erase                         0x080083a0   Section        0  gd32f10x_fmc.o(i.fmc_page_erase)
    i.fmc_unlock                             0x0800848c   Section        0  gd32f10x_fmc.o(i.fmc_unlock)
    i.fmc_word_program                       0x080084d0   Section        0  gd32f10x_fmc.o(i.fmc_word_program)
    i.fputc                                  0x08008590   Section        0  hw_uart.o(i.fputc)
    i.gpio_exti_source_select                0x080085b4   Section        0  gd32f10x_gpio.o(i.gpio_exti_source_select)
    i.gpio_init                              0x0800864c   Section        0  gd32f10x_gpio.o(i.gpio_init)
    i.gpio_input_bit_get                     0x080086f8   Section        0  gd32f10x_gpio.o(i.gpio_input_bit_get)
    i.gpio_pin_remap_config                  0x08008708   Section        0  gd32f10x_gpio.o(i.gpio_pin_remap_config)
    i.i2c_ack_config                         0x08008798   Section        0  gd32f10x_i2c.o(i.i2c_ack_config)
    i.i2c_clock_config                       0x080087b0   Section        0  gd32f10x_i2c.o(i.i2c_clock_config)
    i.i2c_data_receive                       0x08008894   Section        0  gd32f10x_i2c.o(i.i2c_data_receive)
    i.i2c_data_transmit                      0x0800889c   Section        0  gd32f10x_i2c.o(i.i2c_data_transmit)
    i.i2c_enable                             0x080088a2   Section        0  gd32f10x_i2c.o(i.i2c_enable)
    i.i2c_flag_clear                         0x080088ac   Section        0  gd32f10x_i2c.o(i.i2c_flag_clear)
    i.i2c_flag_get                           0x080088d4   Section        0  gd32f10x_i2c.o(i.i2c_flag_get)
    i.i2c_master_addressing                  0x080088f2   Section        0  gd32f10x_i2c.o(i.i2c_master_addressing)
    i.i2c_mode_addr_config                   0x08008906   Section        0  gd32f10x_i2c.o(i.i2c_mode_addr_config)
    i.i2c_start_on_bus                       0x08008922   Section        0  gd32f10x_i2c.o(i.i2c_start_on_bus)
    i.i2c_stop_on_bus                        0x0800892c   Section        0  gd32f10x_i2c.o(i.i2c_stop_on_bus)
    i.main                                   0x08008938   Section        0  main.o(i.main)
    i.modbusAct                              0x080089c0   Section        0  modbus.o(i.modbusAct)
    i.modbusParse                            0x08008fd4   Section        0  modbus.o(i.modbusParse)
    i.modbusValInit                          0x0800912c   Section        0  modbus.o(i.modbusValInit)
    i.nvic_config                            0x08009180   Section        0  hw_timer.o(i.nvic_config)
    i.nvic_irq_disable                       0x080091a0   Section        0  gd32f10x_misc.o(i.nvic_irq_disable)
    i.nvic_irq_enable                        0x080091b8   Section        0  gd32f10x_misc.o(i.nvic_irq_enable)
    i.nvic_priority_group_set                0x08009264   Section        0  gd32f10x_misc.o(i.nvic_priority_group_set)
    i.nvic_vector_table_set                  0x08009278   Section        0  gd32f10x_misc.o(i.nvic_vector_table_set)
    i.rcu_clock_freq_get                     0x0800928c   Section        0  gd32f10x_rcu.o(i.rcu_clock_freq_get)
    i.rcu_periph_clock_enable                0x080093b0   Section        0  gd32f10x_rcu.o(i.rcu_periph_clock_enable)
    i.rcu_periph_reset_disable               0x080093d0   Section        0  gd32f10x_rcu.o(i.rcu_periph_reset_disable)
    i.rcu_periph_reset_enable                0x080093f0   Section        0  gd32f10x_rcu.o(i.rcu_periph_reset_enable)
    i.system_clock_108m_hxtal                0x08009410   Section        0  system_gd32f10x.o(i.system_clock_108m_hxtal)
    system_clock_108m_hxtal                  0x08009411   Thumb Code   182  system_gd32f10x.o(i.system_clock_108m_hxtal)
    i.system_clock_config                    0x080094d4   Section        0  system_gd32f10x.o(i.system_clock_config)
    system_clock_config                      0x080094d5   Thumb Code     8  system_gd32f10x.o(i.system_clock_config)
    i.systick_clksource_set                  0x080094dc   Section        0  gd32f10x_misc.o(i.systick_clksource_set)
    i.systick_config                         0x08009504   Section        0  systick.o(i.systick_config)
    i.timer_deinit                           0x08009548   Section        0  gd32f10x_timer.o(i.timer_deinit)
    i.timer_disable                          0x08009624   Section        0  gd32f10x_timer.o(i.timer_disable)
    i.timer_enable                           0x0800962e   Section        0  gd32f10x_timer.o(i.timer_enable)
    i.timer_init                             0x08009638   Section        0  gd32f10x_timer.o(i.timer_init)
    i.timer_interrupt_enable                 0x08009718   Section        0  gd32f10x_timer.o(i.timer_interrupt_enable)
    i.timer_interrupt_flag_clear             0x08009720   Section        0  gd32f10x_timer.o(i.timer_interrupt_flag_clear)
    i.timer_interrupt_flag_get               0x08009726   Section        0  gd32f10x_timer.o(i.timer_interrupt_flag_get)
    i.usart_baudrate_set                     0x08009740   Section        0  gd32f10x_usart.o(i.usart_baudrate_set)
    i.usart_data_receive                     0x080097d0   Section        0  gd32f10x_usart.o(i.usart_data_receive)
    i.usart_data_transmit                    0x080097da   Section        0  gd32f10x_usart.o(i.usart_data_transmit)
    i.usart_deinit                           0x080097e4   Section        0  gd32f10x_usart.o(i.usart_deinit)
    i.usart_disable                          0x08009874   Section        0  gd32f10x_usart.o(i.usart_disable)
    i.usart_enable                           0x0800987e   Section        0  gd32f10x_usart.o(i.usart_enable)
    i.usart_flag_get                         0x08009888   Section        0  gd32f10x_usart.o(i.usart_flag_get)
    i.usart_hardware_flow_cts_config         0x080098a6   Section        0  gd32f10x_usart.o(i.usart_hardware_flow_cts_config)
    i.usart_hardware_flow_rts_config         0x080098b6   Section        0  gd32f10x_usart.o(i.usart_hardware_flow_rts_config)
    i.usart_interrupt_disable                0x080098c6   Section        0  gd32f10x_usart.o(i.usart_interrupt_disable)
    i.usart_interrupt_enable                 0x080098e0   Section        0  gd32f10x_usart.o(i.usart_interrupt_enable)
    i.usart_interrupt_flag_clear             0x080098fa   Section        0  gd32f10x_usart.o(i.usart_interrupt_flag_clear)
    i.usart_interrupt_flag_get               0x08009914   Section        0  gd32f10x_usart.o(i.usart_interrupt_flag_get)
    i.usart_parity_config                    0x0800994c   Section        0  gd32f10x_usart.o(i.usart_parity_config)
    i.usart_receive_config                   0x0800995c   Section        0  gd32f10x_usart.o(i.usart_receive_config)
    i.usart_stop_bit_set                     0x0800996c   Section        0  gd32f10x_usart.o(i.usart_stop_bit_set)
    i.usart_transmit_config                  0x0800997c   Section        0  gd32f10x_usart.o(i.usart_transmit_config)
    i.usart_word_length_set                  0x0800998c   Section        0  gd32f10x_usart.o(i.usart_word_length_set)
    .constdata                               0x0800999c   Section       12  mktime.o(.constdata)
    monlen                                   0x0800999c   Data          12  mktime.o(.constdata)
    .constdata                               0x080099a8   Section       12  localtime_i.o(.constdata)
    monlen                                   0x080099a8   Data          12  localtime_i.o(.constdata)
    .conststring                             0x080099b4   Section      146  wh_nb73.o(.conststring)
    .data                                    0x20000000   Section        4  system_gd32f10x.o(.data)
    .data                                    0x20000004   Section        8  systick.o(.data)
    count_1us                                0x20000004   Data           4  systick.o(.data)
    count_1ms                                0x20000008   Data           4  systick.o(.data)
    .data                                    0x2000000c   Section       10  init.o(.data)
    .data                                    0x20000018   Section      989  modbus.o(.data)
    modTimer                                 0x20000018   Data           4  modbus.o(.data)
    readFlag                                 0x200001ec   Data           1  modbus.o(.data)
    RtcH_data                                0x200001ee   Data           2  modbus.o(.data)
    crcTb                                    0x200001f0   Data         512  modbus.o(.data)
    TempBufIndex                             0x200003f0   Data           1  modbus.o(.data)
    tempLen                                  0x200003f2   Data           2  modbus.o(.data)
    step                                     0x200003f4   Data           1  modbus.o(.data)
    .data                                    0x200003f6   Section        5  commucateslave.o(.data)
    tempLen                                  0x200003fa   Data           1  commucateslave.o(.data)
    .data                                    0x200003fc   Section       72  protocol.o(.data)
    signalBuf                                0x200003fc   Data           7  protocol.o(.data)
    count                                    0x20000430   Data           2  protocol.o(.data)
    step                                     0x20000432   Data           1  protocol.o(.data)
    step                                     0x20000433   Data           1  protocol.o(.data)
    step                                     0x20000434   Data           1  protocol.o(.data)
    step                                     0x20000435   Data           1  protocol.o(.data)
    step                                     0x20000436   Data           1  protocol.o(.data)
    step                                     0x20000437   Data           1  protocol.o(.data)
    step                                     0x20000438   Data           1  protocol.o(.data)
    step                                     0x20000439   Data           1  protocol.o(.data)
    step                                     0x2000043a   Data           1  protocol.o(.data)
    step                                     0x2000043b   Data           1  protocol.o(.data)
    tempLen                                  0x2000043c   Data           1  protocol.o(.data)
    tempBufLen                               0x2000043d   Data           1  protocol.o(.data)
    tempCrc                                  0x2000043e   Data           2  protocol.o(.data)
    count1                                   0x20000440   Data           2  protocol.o(.data)
    count2                                   0x20000442   Data           2  protocol.o(.data)
    .data                                    0x20000444   Section       34  ds18b20.o(.data)
    step                                     0x20000448   Data           1  ds18b20.o(.data)
    Count                                    0x2000044a   Data           2  ds18b20.o(.data)
    PreTempNormal                            0x2000044c   Data           1  ds18b20.o(.data)
    CurrentTempNormal                        0x2000044d   Data           1  ds18b20.o(.data)
    PreTemp                                  0x20000450   Data           4  ds18b20.o(.data)
    BackNormal                               0x20000454   Data           1  ds18b20.o(.data)
    BackNormalCount                          0x20000455   Data           1  ds18b20.o(.data)
    step                                     0x20000456   Data           1  ds18b20.o(.data)
    Count                                    0x20000458   Data           2  ds18b20.o(.data)
    PreTempNormal                            0x2000045a   Data           1  ds18b20.o(.data)
    CurrentTempNormal                        0x2000045b   Data           1  ds18b20.o(.data)
    PreTemp                                  0x2000045c   Data           4  ds18b20.o(.data)
    BackNormal                               0x20000460   Data           1  ds18b20.o(.data)
    BackNormalCount                          0x20000461   Data           1  ds18b20.o(.data)
    PreStatus                                0x20000462   Data           1  ds18b20.o(.data)
    CurrStatus                               0x20000463   Data           1  ds18b20.o(.data)
    BackNormal                               0x20000464   Data           1  ds18b20.o(.data)
    BackNormalCount                          0x20000465   Data           1  ds18b20.o(.data)
    .data                                    0x20000468   Section        4  isl1208.o(.data)
    count                                    0x20000468   Data           4  isl1208.o(.data)
    .data                                    0x2000046c   Section      381  wh_nb73.o(.data)
    ResDataIndex                             0x2000046c   Data           2  wh_nb73.o(.data)
    sendBuf                                  0x2000046e   Data         255  wh_nb73.o(.data)
    SendBufIndex                             0x2000056d   Data           1  wh_nb73.o(.data)
    RevBufIndex                              0x2000056e   Data           1  wh_nb73.o(.data)
    AT_FuncTable                             0x20000570   Data          40  wh_nb73.o(.data)
    step                                     0x20000598   Data           1  wh_nb73.o(.data)
    count                                    0x2000059a   Data           2  wh_nb73.o(.data)
    rty                                      0x2000059c   Data           1  wh_nb73.o(.data)
    count                                    0x2000059e   Data           2  wh_nb73.o(.data)
    step                                     0x200005a0   Data           1  wh_nb73.o(.data)
    count                                    0x200005a2   Data           2  wh_nb73.o(.data)
    count                                    0x200005a4   Data           2  wh_nb73.o(.data)
    step                                     0x200005a6   Data           1  wh_nb73.o(.data)
    count                                    0x200005a8   Data           2  wh_nb73.o(.data)
    count                                    0x200005aa   Data           2  wh_nb73.o(.data)
    step                                     0x200005ac   Data           1  wh_nb73.o(.data)
    count                                    0x200005ae   Data           2  wh_nb73.o(.data)
    step                                     0x200005b0   Data           1  wh_nb73.o(.data)
    count                                    0x200005b2   Data           2  wh_nb73.o(.data)
    count                                    0x200005b4   Data           2  wh_nb73.o(.data)
    step                                     0x200005b6   Data           1  wh_nb73.o(.data)
    count                                    0x200005b8   Data           2  wh_nb73.o(.data)
    count                                    0x200005ba   Data           2  wh_nb73.o(.data)
    step                                     0x200005bc   Data           1  wh_nb73.o(.data)
    count                                    0x200005be   Data           2  wh_nb73.o(.data)
    rty                                      0x200005c0   Data           1  wh_nb73.o(.data)
    count                                    0x200005c2   Data           2  wh_nb73.o(.data)
    step                                     0x200005c4   Data           1  wh_nb73.o(.data)
    count                                    0x200005c6   Data           2  wh_nb73.o(.data)
    rty                                      0x200005c8   Data           1  wh_nb73.o(.data)
    count                                    0x200005ca   Data           2  wh_nb73.o(.data)
    Num                                      0x200005cc   Data           1  wh_nb73.o(.data)
    step                                     0x200005cd   Data           1  wh_nb73.o(.data)
    count                                    0x200005ce   Data           2  wh_nb73.o(.data)
    count                                    0x200005d0   Data           2  wh_nb73.o(.data)
    count                                    0x200005d2   Data           2  wh_nb73.o(.data)
    count                                    0x200005d4   Data           1  wh_nb73.o(.data)
    index                                    0x200005d5   Data           1  wh_nb73.o(.data)
    count                                    0x200005d6   Data           2  wh_nb73.o(.data)
    count                                    0x200005d8   Data           2  wh_nb73.o(.data)
    count                                    0x200005dc   Data           4  wh_nb73.o(.data)
    RegTry                                   0x200005e0   Data           1  wh_nb73.o(.data)
    count                                    0x200005e4   Data           4  wh_nb73.o(.data)
    RegTry                                   0x200005e8   Data           1  wh_nb73.o(.data)
    .data                                    0x200005ec   Section     1616  cj2301.o(.data)
    waterTable                               0x200005ec   Data        1612  cj2301.o(.data)
    step                                     0x20000c38   Data           1  cj2301.o(.data)
    count                                    0x20000c3a   Data           2  cj2301.o(.data)
    .data                                    0x20000c3c   Section       11  hw_timer.o(.data)
    TempureInterval                          0x20000c3c   Data           2  hw_timer.o(.data)
    count                                    0x20000c3e   Data           2  hw_timer.o(.data)
    oneSecondCount                           0x20000c40   Data           2  hw_timer.o(.data)
    halfSecondCount                          0x20000c42   Data           2  hw_timer.o(.data)
    led_count                                0x20000c44   Data           2  hw_timer.o(.data)
    led_state                                0x20000c46   Data           1  hw_timer.o(.data)
    .data                                    0x20000c47   Section        9  hw_uart.o(.data)
    HostHead                                 0x20000c47   Data           1  hw_uart.o(.data)
    HostTail                                 0x20000c48   Data           1  hw_uart.o(.data)
    HostCount                                0x20000c49   Data           1  hw_uart.o(.data)
    NbHead                                   0x20000c4a   Data           1  hw_uart.o(.data)
    NbTail                                   0x20000c4b   Data           1  hw_uart.o(.data)
    NbCount                                  0x20000c4c   Data           1  hw_uart.o(.data)
    .data                                    0x20000c50   Section       28  hw_exit.o(.data)
    count                                    0x20000c50   Data           2  hw_exit.o(.data)
    checkCount1                              0x20000c52   Data           2  hw_exit.o(.data)
    checkCount2                              0x20000c54   Data           2  hw_exit.o(.data)
    old_t1                                   0x20000c56   Data           1  hw_exit.o(.data)
    old_t2                                   0x20000c57   Data           1  hw_exit.o(.data)
    ch1_val                                  0x20000c58   Data           1  hw_exit.o(.data)
    ch1_val_old                              0x20000c59   Data           1  hw_exit.o(.data)
    ch2_val                                  0x20000c5a   Data           1  hw_exit.o(.data)
    ch2_val_old                              0x20000c5b   Data           1  hw_exit.o(.data)
    ch3_val                                  0x20000c5c   Data           1  hw_exit.o(.data)
    ch3_val_old                              0x20000c5d   Data           1  hw_exit.o(.data)
    ch1_Count                                0x20000c5e   Data           1  hw_exit.o(.data)
    ch2_Count                                0x20000c5f   Data           1  hw_exit.o(.data)
    ch3_Count                                0x20000c60   Data           1  hw_exit.o(.data)
    ch1_float                                0x20000c61   Data           1  hw_exit.o(.data)
    ch2_float                                0x20000c62   Data           1  hw_exit.o(.data)
    ch3_float                                0x20000c63   Data           1  hw_exit.o(.data)
    ch1_flag                                 0x20000c64   Data           1  hw_exit.o(.data)
    ch2_flag                                 0x20000c65   Data           1  hw_exit.o(.data)
    ch3_flag                                 0x20000c66   Data           1  hw_exit.o(.data)
    error1_count                             0x20000c68   Data           2  hw_exit.o(.data)
    error2_count                             0x20000c6a   Data           2  hw_exit.o(.data)
    .data                                    0x20000c6c   Section        4  hw_fmc.o(.data)
    count                                    0x20000c6c   Data           4  hw_fmc.o(.data)
    .data                                    0x20000c70   Section        4  rand.o(.data)
    _rand_state                              0x20000c70   Data           4  rand.o(.data)
    .data                                    0x20000c74   Section        4  stdout.o(.data)
    .bss                                     0x20000c78   Section      676  init.o(.bss)
    .bss                                     0x20000f1c   Section      980  modbus.o(.bss)
    TempBuf                                  0x200011f0   Data         256  modbus.o(.bss)
    .bss                                     0x200012f0   Section      156  commucateslave.o(.bss)
    .bss                                     0x2000138c   Section      405  protocol.o(.bss)
    tempBuf                                  0x20001459   Data         200  protocol.o(.bss)
    .bss                                     0x20001524   Section       12  isl1208.o(.bss)
    .bss                                     0x20001530   Section     1550  wh_nb73.o(.bss)
    ResDataBuf                               0x200015e0   Data        1024  wh_nb73.o(.bss)
    RevBuf                                   0x200019e0   Data         100  wh_nb73.o(.bss)
    buffer                                   0x20001a44   Data         250  wh_nb73.o(.bss)
    .bss                                     0x20001b3e   Section      765  hw_uart.o(.bss)
    HostBuff                                 0x20001b3e   Data         255  hw_uart.o(.bss)
    NbBuff                                   0x20001c3d   Data         255  hw_uart.o(.bss)
    .bss                                     0x20001e3c   Section       44  localtime_w.o(.bss)
    _tms                                     0x20001e3c   Data          44  localtime_w.o(.bss)
    STACK                                    0x20001e68   Section     8192  startup_gd32f10x_md.o(STACK)

    Global Symbols

    Symbol Name                              Value     Ov Type        Size  Object(Section)

    BuildAttributes$$THM_ISAv4$P$D$K$B$S$PE$A:L22UL41UL21$X:L11$S22US41US21$IEEE1$IW$USESV6$~STKCKD$USESV7$~SHL$OTIME$ROPI$EBA8$MICROLIB$REQ8$PRES8$EABIv2 0x00000000   Number         0  anon$$obj.o ABSOLUTE
    __ARM_use_no_argv                        0x00000000   Number         0  main.o ABSOLUTE
    _printf_a                                0x00000000   Number         0  stubs.o ABSOLUTE
    _printf_c                                0x00000000   Number         0  stubs.o ABSOLUTE
    _printf_charcount                        0x00000000   Number         0  stubs.o ABSOLUTE
    _printf_d                                0x00000000   Number         0  stubs.o ABSOLUTE
    _printf_e                                0x00000000   Number         0  stubs.o ABSOLUTE
    _printf_f                                0x00000000   Number         0  stubs.o ABSOLUTE
    _printf_flags                            0x00000000   Number         0  stubs.o ABSOLUTE
    _printf_fp_dec                           0x00000000   Number         0  stubs.o ABSOLUTE
    _printf_fp_hex                           0x00000000   Number         0  stubs.o ABSOLUTE
    _printf_g                                0x00000000   Number         0  stubs.o ABSOLUTE
    _printf_i                                0x00000000   Number         0  stubs.o ABSOLUTE
    _printf_int_dec                          0x00000000   Number         0  stubs.o ABSOLUTE
    _printf_l                                0x00000000   Number         0  stubs.o ABSOLUTE
    _printf_lc                               0x00000000   Number         0  stubs.o ABSOLUTE
    _printf_ll                               0x00000000   Number         0  stubs.o ABSOLUTE
    _printf_lld                              0x00000000   Number         0  stubs.o ABSOLUTE
    _printf_lli                              0x00000000   Number         0  stubs.o ABSOLUTE
    _printf_llo                              0x00000000   Number         0  stubs.o ABSOLUTE
    _printf_llu                              0x00000000   Number         0  stubs.o ABSOLUTE
    _printf_llx                              0x00000000   Number         0  stubs.o ABSOLUTE
    _printf_longlong_dec                     0x00000000   Number         0  stubs.o ABSOLUTE
    _printf_longlong_hex                     0x00000000   Number         0  stubs.o ABSOLUTE
    _printf_longlong_oct                     0x00000000   Number         0  stubs.o ABSOLUTE
    _printf_ls                               0x00000000   Number         0  stubs.o ABSOLUTE
    _printf_mbtowc                           0x00000000   Number         0  stubs.o ABSOLUTE
    _printf_n                                0x00000000   Number         0  stubs.o ABSOLUTE
    _printf_o                                0x00000000   Number         0  stubs.o ABSOLUTE
    _printf_p                                0x00000000   Number         0  stubs.o ABSOLUTE
    _printf_percent                          0x00000000   Number         0  stubs.o ABSOLUTE
    _printf_pre_padding                      0x00000000   Number         0  stubs.o ABSOLUTE
    _printf_return_value                     0x00000000   Number         0  stubs.o ABSOLUTE
    _printf_s                                0x00000000   Number         0  stubs.o ABSOLUTE
    _printf_sizespec                         0x00000000   Number         0  stubs.o ABSOLUTE
    _printf_str                              0x00000000   Number         0  stubs.o ABSOLUTE
    _printf_truncate_signed                  0x00000000   Number         0  stubs.o ABSOLUTE
    _printf_truncate_unsigned                0x00000000   Number         0  stubs.o ABSOLUTE
    _printf_u                                0x00000000   Number         0  stubs.o ABSOLUTE
    _printf_wc                               0x00000000   Number         0  stubs.o ABSOLUTE
    _printf_wctomb                           0x00000000   Number         0  stubs.o ABSOLUTE
    _printf_widthprec                        0x00000000   Number         0  stubs.o ABSOLUTE
    _printf_x                                0x00000000   Number         0  stubs.o ABSOLUTE
    __cpp_initialize__aeabi_                  - Undefined Weak Reference
    __cxa_finalize                            - Undefined Weak Reference
    _clock_init                               - Undefined Weak Reference
    _microlib_exit                            - Undefined Weak Reference
    __Vectors_Size                           0x00000104   Number         0  startup_gd32f10x_md.o ABSOLUTE
    __Vectors                                0x08000000   Data           4  startup_gd32f10x_md.o(RESET)
    __Vectors_End                            0x08000104   Data           0  startup_gd32f10x_md.o(RESET)
    __main                                   0x08000105   Thumb Code     0  entry.o(.ARM.Collect$$$$00000000)
    _main_stk                                0x08000105   Thumb Code     0  entry2.o(.ARM.Collect$$$$00000001)
    _main_scatterload                        0x08000109   Thumb Code     0  entry5.o(.ARM.Collect$$$$00000004)
    __main_after_scatterload                 0x0800010d   Thumb Code     0  entry5.o(.ARM.Collect$$$$00000004)
    _main_clock                              0x0800010d   Thumb Code     0  entry7b.o(.ARM.Collect$$$$00000008)
    _main_cpp_init                           0x0800010d   Thumb Code     0  entry8b.o(.ARM.Collect$$$$0000000A)
    _main_init                               0x0800010d   Thumb Code     0  entry9a.o(.ARM.Collect$$$$0000000B)
    __rt_final_cpp                           0x08000115   Thumb Code     0  entry10a.o(.ARM.Collect$$$$0000000D)
    __rt_final_exit                          0x08000115   Thumb Code     0  entry11a.o(.ARM.Collect$$$$0000000F)
    Reset_Handler                            0x08000119   Thumb Code     8  startup_gd32f10x_md.o(.text)
    ADC0_1_IRQHandler                        0x08000133   Thumb Code     0  startup_gd32f10x_md.o(.text)
    CAN0_EWMC_IRQHandler                     0x08000133   Thumb Code     0  startup_gd32f10x_md.o(.text)
    CAN0_RX1_IRQHandler                      0x08000133   Thumb Code     0  startup_gd32f10x_md.o(.text)
    DMA0_Channel0_IRQHandler                 0x08000133   Thumb Code     0  startup_gd32f10x_md.o(.text)
    DMA0_Channel1_IRQHandler                 0x08000133   Thumb Code     0  startup_gd32f10x_md.o(.text)
    DMA0_Channel2_IRQHandler                 0x08000133   Thumb Code     0  startup_gd32f10x_md.o(.text)
    DMA0_Channel3_IRQHandler                 0x08000133   Thumb Code     0  startup_gd32f10x_md.o(.text)
    DMA0_Channel4_IRQHandler                 0x08000133   Thumb Code     0  startup_gd32f10x_md.o(.text)
    DMA0_Channel5_IRQHandler                 0x08000133   Thumb Code     0  startup_gd32f10x_md.o(.text)
    DMA0_Channel6_IRQHandler                 0x08000133   Thumb Code     0  startup_gd32f10x_md.o(.text)
    EXMC_IRQHandler                          0x08000133   Thumb Code     0  startup_gd32f10x_md.o(.text)
    EXTI0_IRQHandler                         0x08000133   Thumb Code     0  startup_gd32f10x_md.o(.text)
    EXTI1_IRQHandler                         0x08000133   Thumb Code     0  startup_gd32f10x_md.o(.text)
    EXTI2_IRQHandler                         0x08000133   Thumb Code     0  startup_gd32f10x_md.o(.text)
    EXTI3_IRQHandler                         0x08000133   Thumb Code     0  startup_gd32f10x_md.o(.text)
    EXTI4_IRQHandler                         0x08000133   Thumb Code     0  startup_gd32f10x_md.o(.text)
    EXTI5_9_IRQHandler                       0x08000133   Thumb Code     0  startup_gd32f10x_md.o(.text)
    FMC_IRQHandler                           0x08000133   Thumb Code     0  startup_gd32f10x_md.o(.text)
    I2C0_ER_IRQHandler                       0x08000133   Thumb Code     0  startup_gd32f10x_md.o(.text)
    I2C0_EV_IRQHandler                       0x08000133   Thumb Code     0  startup_gd32f10x_md.o(.text)
    I2C1_ER_IRQHandler                       0x08000133   Thumb Code     0  startup_gd32f10x_md.o(.text)
    I2C1_EV_IRQHandler                       0x08000133   Thumb Code     0  startup_gd32f10x_md.o(.text)
    LVD_IRQHandler                           0x08000133   Thumb Code     0  startup_gd32f10x_md.o(.text)
    RCU_IRQHandler                           0x08000133   Thumb Code     0  startup_gd32f10x_md.o(.text)
    RTC_Alarm_IRQHandler                     0x08000133   Thumb Code     0  startup_gd32f10x_md.o(.text)
    RTC_IRQHandler                           0x08000133   Thumb Code     0  startup_gd32f10x_md.o(.text)
    SPI0_IRQHandler                          0x08000133   Thumb Code     0  startup_gd32f10x_md.o(.text)
    SPI1_IRQHandler                          0x08000133   Thumb Code     0  startup_gd32f10x_md.o(.text)
    TAMPER_IRQHandler                        0x08000133   Thumb Code     0  startup_gd32f10x_md.o(.text)
    TIMER0_BRK_IRQHandler                    0x08000133   Thumb Code     0  startup_gd32f10x_md.o(.text)
    TIMER0_Channel_IRQHandler                0x08000133   Thumb Code     0  startup_gd32f10x_md.o(.text)
    TIMER0_TRG_CMT_IRQHandler                0x08000133   Thumb Code     0  startup_gd32f10x_md.o(.text)
    TIMER0_UP_IRQHandler                     0x08000133   Thumb Code     0  startup_gd32f10x_md.o(.text)
    TIMER3_IRQHandler                        0x08000133   Thumb Code     0  startup_gd32f10x_md.o(.text)
    USBD_HP_CAN0_TX_IRQHandler               0x08000133   Thumb Code     0  startup_gd32f10x_md.o(.text)
    USBD_LP_CAN0_RX0_IRQHandler              0x08000133   Thumb Code     0  startup_gd32f10x_md.o(.text)
    USBD_WKUP_IRQHandler                     0x08000133   Thumb Code     0  startup_gd32f10x_md.o(.text)
    WWDGT_IRQHandler                         0x08000133   Thumb Code     0  startup_gd32f10x_md.o(.text)
    rand                                     0x0800013d   Thumb Code    20  rand.o(.text)
    srand                                    0x08000151   Thumb Code     6  rand.o(.text)
    mktime                                   0x08000161   Thumb Code   150  mktime.o(.text)
    __aeabi_memcpy                           0x08000209   Thumb Code    36  memcpya.o(.text)
    __aeabi_memcpy4                          0x08000209   Thumb Code     0  memcpya.o(.text)
    __aeabi_memcpy8                          0x08000209   Thumb Code     0  memcpya.o(.text)
    __aeabi_memset                           0x0800022d   Thumb Code    14  memseta.o(.text)
    __aeabi_memset4                          0x0800022d   Thumb Code     0  memseta.o(.text)
    __aeabi_memset8                          0x0800022d   Thumb Code     0  memseta.o(.text)
    __aeabi_memclr                           0x0800023b   Thumb Code     4  memseta.o(.text)
    __aeabi_memclr4                          0x0800023b   Thumb Code     0  memseta.o(.text)
    __aeabi_memclr8                          0x0800023b   Thumb Code     0  memseta.o(.text)
    _memset$wrapper                          0x0800023f   Thumb Code    18  memseta.o(.text)
    strstr                                   0x08000251   Thumb Code    36  strstr.o(.text)
    strlen                                   0x08000275   Thumb Code    14  strlen.o(.text)
    memcmp                                   0x08000283   Thumb Code    26  memcmp.o(.text)
    __aeabi_fadd                             0x0800029d   Thumb Code   164  fadd.o(.text)
    __aeabi_fsub                             0x08000341   Thumb Code     6  fadd.o(.text)
    __aeabi_frsub                            0x08000347   Thumb Code     6  fadd.o(.text)
    __aeabi_fmul                             0x0800034d   Thumb Code   100  fmul.o(.text)
    __aeabi_fdiv                             0x080003b1   Thumb Code   124  fdiv.o(.text)
    __aeabi_dadd                             0x0800042d   Thumb Code   322  dadd.o(.text)
    __aeabi_dsub                             0x0800056f   Thumb Code     6  dadd.o(.text)
    __aeabi_drsub                            0x08000575   Thumb Code     6  dadd.o(.text)
    __aeabi_dmul                             0x0800057b   Thumb Code   228  dmul.o(.text)
    __aeabi_ddiv                             0x0800065f   Thumb Code   222  ddiv.o(.text)
    __aeabi_i2f                              0x0800073d   Thumb Code    18  fflti.o(.text)
    __aeabi_ui2f                             0x0800074f   Thumb Code    10  ffltui.o(.text)
    __aeabi_f2uiz                            0x08000759   Thumb Code    40  ffixui.o(.text)
    __aeabi_f2d                              0x08000781   Thumb Code    38  f2d.o(.text)
    __aeabi_cdrcmple                         0x080007a9   Thumb Code    48  cdrcmple.o(.text)
    __aeabi_d2f                              0x080007d9   Thumb Code    56  d2f.o(.text)
    __aeabi_uidiv                            0x08000811   Thumb Code     0  uidiv.o(.text)
    __aeabi_uidivmod                         0x08000811   Thumb Code    44  uidiv.o(.text)
    __aeabi_uldivmod                         0x0800083d   Thumb Code    98  uldiv.o(.text)
    __aeabi_llsl                             0x0800089f   Thumb Code    30  llshl.o(.text)
    _ll_shift_l                              0x0800089f   Thumb Code     0  llshl.o(.text)
    __aeabi_lasr                             0x080008bd   Thumb Code    36  llsshr.o(.text)
    _ll_sshift_r                             0x080008bd   Thumb Code     0  llsshr.o(.text)
    localtime                                0x080008e1   Thumb Code     6  localtime_w.o(.text)
    _localtime                               0x080008ed   Thumb Code   134  localtime_i.o(.text)
    __I$use$fp                               0x08000979   Thumb Code     0  iusefp.o(.text)
    _float_round                             0x08000979   Thumb Code    18  fepilogue.o(.text)
    _float_epilogue                          0x0800098b   Thumb Code    92  fepilogue.o(.text)
    _double_round                            0x080009e7   Thumb Code    30  depilogue.o(.text)
    _double_epilogue                         0x08000a05   Thumb Code   156  depilogue.o(.text)
    __aeabi_d2ulz                            0x08000aa1   Thumb Code    48  dfixul.o(.text)
    __scatterload                            0x08000ad1   Thumb Code    28  init.o(.text)
    __scatterload_rt2                        0x08000ad1   Thumb Code     0  init.o(.text)
    __aeabi_llsr                             0x08000af5   Thumb Code    32  llushr.o(.text)
    _ll_ushift_r                             0x08000af5   Thumb Code     0  llushr.o(.text)
    __decompress                             0x08000b15   Thumb Code     0  __dczerorl2.o(.text)
    __decompress1                            0x08000b15   Thumb Code    86  __dczerorl2.o(.text)
    BackUpAdd                                0x08000c15   Thumb Code   154  init.o(i.BackUpAdd)
    BackUpClearOne                           0x08000cbd   Thumb Code    66  init.o(i.BackUpClearOne)
    BcdToByte                                0x08000d05   Thumb Code    20  isl1208.o(i.BcdToByte)
    BusFault_Handler                         0x08000da9   Thumb Code     4  gd32f10x_it.o(i.BusFault_Handler)
    ByteToBcd                                0x08000def   Thumb Code    24  isl1208.o(i.ByteToBcd)
    CheckCRC                                 0x08000e3d   Thumb Code    28  hw_fmc.o(i.CheckCRC)
    Cj2301_EndRead                           0x08001079   Thumb Code    32  cj2301.o(i.Cj2301_EndRead)
    Cj2301_Init                              0x0800109d   Thumb Code   140  cj2301.o(i.Cj2301_Init)
    Cj2301_Read                              0x0800115d   Thumb Code    40  cj2301.o(i.Cj2301_Read)
    Cj2301_ReadTempHumi                      0x08001189   Thumb Code   174  cj2301.o(i.Cj2301_ReadTempHumi)
    Cj2301_StartReadTempHumi                 0x08001269   Thumb Code   156  cj2301.o(i.Cj2301_StartReadTempHumi)
    CommunAdd                                0x08001335   Thumb Code    66  hw_uart.o(i.CommunAdd)
    CommunCheck                              0x08001389   Thumb Code    16  hw_uart.o(i.CommunCheck)
    CommunGetData                            0x0800139d   Thumb Code    76  hw_uart.o(i.CommunGetData)
    CommunUartSendBuf                        0x080013f9   Thumb Code    44  hw_uart.o(i.CommunUartSendBuf)
    CreateSocketEnable                       0x08001501   Thumb Code    16  wh_nb73.o(i.CreateSocketEnable)
    DS18B20GetIntTemp                        0x08001539   Thumb Code   666  ds18b20.o(i.DS18B20GetIntTemp)
    DS18B20_Check                            0x0800184d   Thumb Code   218  ds18b20.o(i.DS18B20_Check)
    DS18B20_Init                             0x0800192d   Thumb Code   140  ds18b20.o(i.DS18B20_Init)
    DS18B20_Read_Bit                         0x080019fd   Thumb Code   102  ds18b20.o(i.DS18B20_Read_Bit)
    DS18B20_Read_Byte                        0x08001a69   Thumb Code    34  ds18b20.o(i.DS18B20_Read_Byte)
    DS18B20_Rst                              0x08001a8d   Thumb Code   120  ds18b20.o(i.DS18B20_Rst)
    DS18B20_Start                            0x08001b09   Thumb Code    46  ds18b20.o(i.DS18B20_Start)
    DS18B20_Write_Byte                       0x08001b39   Thumb Code   106  ds18b20.o(i.DS18B20_Write_Byte)
    DebugMon_Handler                         0x08001ba9   Thumb Code     2  gd32f10x_it.o(i.DebugMon_Handler)
    EXTI10_15_IRQHandler                     0x08001bad   Thumb Code   306  hw_exit.o(i.EXTI10_15_IRQHandler)
    ExitInit                                 0x08001dfd   Thumb Code   174  hw_exit.o(i.ExitInit)
    Ext_DS18B20_Write_Byte                   0x08001eb1   Thumb Code   114  ds18b20.o(i.Ext_DS18B20_Write_Byte)
    FMC_StoreInfoInit                        0x08001f29   Thumb Code   282  hw_fmc.o(i.FMC_StoreInfoInit)
    GetAttchEnable                           0x080020c1   Thumb Code    16  wh_nb73.o(i.GetAttchEnable)
    GetCcidEnable                            0x08002135   Thumb Code    16  wh_nb73.o(i.GetCcidEnable)
    GetChannel3_Status                       0x08002179   Thumb Code   162  hw_exit.o(i.GetChannel3_Status)
    GetExitPinVal                            0x080023d1   Thumb Code   310  hw_exit.o(i.GetExitPinVal)
    GetImeiEnable                            0x08002691   Thumb Code    16  wh_nb73.o(i.GetImeiEnable)
    GetIpEnable                              0x0800271d   Thumb Code    16  wh_nb73.o(i.GetIpEnable)
    GetPciEnable                             0x08002921   Thumb Code    16  wh_nb73.o(i.GetPciEnable)
    GetRssiEnable                            0x080029b9   Thumb Code    16  wh_nb73.o(i.GetRssiEnable)
    GetRtcTime                               0x080029f1   Thumb Code   170  isl1208.o(i.GetRtcTime)
    HardFault_Handler                        0x08002edd   Thumb Code     4  gd32f10x_it.o(i.HardFault_Handler)
    HostAdd                                  0x08002ee1   Thumb Code    62  hw_uart.o(i.HostAdd)
    HostCheck                                0x08002f2d   Thumb Code    16  hw_uart.o(i.HostCheck)
    HostGetData                              0x08002f41   Thumb Code    72  hw_uart.o(i.HostGetData)
    HostUartSendBuf                          0x08002f95   Thumb Code    50  hw_uart.o(i.HostUartSendBuf)
    I2C_Init                                 0x08002fd1   Thumb Code    54  hw_i2c.o(i.I2C_Init)
    Isl1208GetTime                           0x08003049   Thumb Code   120  isl1208.o(i.Isl1208GetTime)
    Isl1208Init                              0x080030c9   Thumb Code    74  isl1208.o(i.Isl1208Init)
    MCU_Init                                 0x0800329d   Thumb Code   110  init.o(i.MCU_Init)
    MemManage_Handler                        0x080033a1   Thumb Code     4  gd32f10x_it.o(i.MemManage_Handler)
    ModbusProtocol                           0x080033a5   Thumb Code    98  modbus.o(i.ModbusProtocol)
    ModbusTimerAct                           0x0800341d   Thumb Code    40  modbus.o(i.ModbusTimerAct)
    Modbus_Crc_Compute                       0x0800346d   Thumb Code    42  modbus.o(i.Modbus_Crc_Compute)
    NB_Control                               0x0800349d   Thumb Code    50  wh_nb73.o(i.NB_Control)
    NMI_Handler                              0x080034d9   Thumb Code     2  gd32f10x_it.o(i.NMI_Handler)
    NbAdd                                    0x080034dd   Thumb Code    66  hw_uart.o(i.NbAdd)
    NbCheck                                  0x08003575   Thumb Code    16  hw_uart.o(i.NbCheck)
    NbGetData                                0x08003589   Thumb Code    76  hw_uart.o(i.NbGetData)
    NbResetEnable                            0x0800374d   Thumb Code    16  wh_nb73.o(i.NbResetEnable)
    NbUartSendBuf                            0x08003785   Thumb Code    62  hw_uart.o(i.NbUartSendBuf)
    PakStuctInit                             0x080037f1   Thumb Code    46  commucateslave.o(i.PakStuctInit)
    ParsePro                                 0x08003e29   Thumb Code   350  protocol.o(i.ParsePro)
    PendSV_Handler                           0x080040bd   Thumb Code     2  gd32f10x_it.o(i.PendSV_Handler)
    ProtocolTask                             0x08004265   Thumb Code    40  protocol.o(i.ProtocolTask)
    ReadBit                                  0x080042f5   Thumb Code    76  cj2301.o(i.ReadBit)
    ReadByte                                 0x08004345   Thumb Code    42  cj2301.o(i.ReadByte)
    ReceParse                                0x080047b9   Thumb Code   258  commucateslave.o(i.ReceParse)
    RtcSetTime                               0x08004a15   Thumb Code   118  isl1208.o(i.RtcSetTime)
    SVC_Handler                              0x080059c1   Thumb Code     2  gd32f10x_it.o(i.SVC_Handler)
    SendDataEnable                           0x08005cc5   Thumb Code    16  wh_nb73.o(i.SendDataEnable)
    SendMainBoardInfoEnable                  0x08005d15   Thumb Code    16  protocol.o(i.SendMainBoardInfoEnable)
    SignalCheck                              0x080061d9   Thumb Code  1464  hw_exit.o(i.SignalCheck)
    SignalTimerDisable                       0x080067c5   Thumb Code    10  hw_timer.o(i.SignalTimerDisable)
    SignalTimerEnable                        0x080067d5   Thumb Code    10  hw_timer.o(i.SignalTimerEnable)
    SignalTimerInit                          0x080067e5   Thumb Code    72  hw_timer.o(i.SignalTimerInit)
    StoreConfStore                           0x08006e39   Thumb Code    20  hw_fmc.o(i.StoreConfStore)
    StoreConfUpdate                          0x08006e51   Thumb Code    42  hw_fmc.o(i.StoreConfUpdate)
    StoreInfoAdd                             0x08006e85   Thumb Code   370  hw_fmc.o(i.StoreInfoAdd)
    StoreInfoCheck                           0x08007001   Thumb Code    90  hw_fmc.o(i.StoreInfoCheck)
    SysTick_Handler                          0x080070b9   Thumb Code     2  gd32f10x_it.o(i.SysTick_Handler)
    SystemInit                               0x080070bd   Thumb Code   116  system_gd32f10x.o(i.SystemInit)
    TIMER1_IRQHandler                        0x08007141   Thumb Code   336  hw_timer.o(i.TIMER1_IRQHandler)
    TIMER2_IRQHandler                        0x080072b9   Thumb Code    34  hw_timer.o(i.TIMER2_IRQHandler)
    Timer_1ms_Init                           0x080072e5   Thumb Code    86  hw_timer.o(i.Timer_1ms_Init)
    USART0_IRQHandler                        0x0800733d   Thumb Code    38  hw_uart.o(i.USART0_IRQHandler)
    USART1_IRQHandler                        0x0800736d   Thumb Code    62  hw_uart.o(i.USART1_IRQHandler)
    USART2_IRQHandler                        0x080073bd   Thumb Code    38  hw_uart.o(i.USART2_IRQHandler)
    UTC_to_Unix                              0x080073ed   Thumb Code    60  isl1208.o(i.UTC_to_Unix)
    UartHostReinit                           0x08007549   Thumb Code    34  hw_uart.o(i.UartHostReinit)
    UartInit                                 0x08007571   Thumb Code    16  hw_uart.o(i.UartInit)
    Unix_to_UTC                              0x0800760d   Thumb Code    96  isl1208.o(i.Unix_to_UTC)
    UsageFault_Handler                       0x08007699   Thumb Code     4  gd32f10x_it.o(i.UsageFault_Handler)
    WriteStoreConf                           0x08007761   Thumb Code    82  hw_fmc.o(i.WriteStoreConf)
    WriteStoreInfo                           0x080077bd   Thumb Code    82  hw_fmc.o(i.WriteStoreInfo)
    __0printf                                0x08007819   Thumb Code    22  printfa.o(i.__0printf)
    __1printf                                0x08007819   Thumb Code     0  printfa.o(i.__0printf)
    __2printf                                0x08007819   Thumb Code     0  printfa.o(i.__0printf)
    __c89printf                              0x08007819   Thumb Code     0  printfa.o(i.__0printf)
    printf                                   0x08007819   Thumb Code     0  printfa.o(i.__0printf)
    __scatterload_copy                       0x08007839   Thumb Code    14  handlers.o(i.__scatterload_copy)
    __scatterload_null                       0x08007847   Thumb Code     2  handlers.o(i.__scatterload_null)
    __scatterload_zeroinit                   0x08007849   Thumb Code    14  handlers.o(i.__scatterload_zeroinit)
    delay_1ms                                0x0800810d   Thumb Code    90  systick.o(i.delay_1ms)
    delay_1us                                0x0800816d   Thumb Code    90  systick.o(i.delay_1us)
    exti_init                                0x080081cd   Thumb Code   184  gd32f10x_exti.o(i.exti_init)
    exti_interrupt_flag_clear                0x08008289   Thumb Code     6  gd32f10x_exti.o(i.exti_interrupt_flag_clear)
    exti_interrupt_flag_get                  0x08008295   Thumb Code    18  gd32f10x_exti.o(i.exti_interrupt_flag_get)
    fmc_bank0_ready_wait                     0x080082ad   Thumb Code    34  gd32f10x_fmc.o(i.fmc_bank0_ready_wait)
    fmc_bank0_state_get                      0x080082d1   Thumb Code    44  gd32f10x_fmc.o(i.fmc_bank0_state_get)
    fmc_bank1_ready_wait                     0x08008301   Thumb Code    34  gd32f10x_fmc.o(i.fmc_bank1_ready_wait)
    fmc_bank1_state_get                      0x08008325   Thumb Code    44  gd32f10x_fmc.o(i.fmc_bank1_state_get)
    fmc_flag_clear                           0x08008355   Thumb Code    28  gd32f10x_fmc.o(i.fmc_flag_clear)
    fmc_lock                                 0x08008375   Thumb Code    34  gd32f10x_fmc.o(i.fmc_lock)
    fmc_page_erase                           0x080083a1   Thumb Code   222  gd32f10x_fmc.o(i.fmc_page_erase)
    fmc_unlock                               0x0800848d   Thumb Code    52  gd32f10x_fmc.o(i.fmc_unlock)
    fmc_word_program                         0x080084d1   Thumb Code   178  gd32f10x_fmc.o(i.fmc_word_program)
    fputc                                    0x08008591   Thumb Code    32  hw_uart.o(i.fputc)
    gpio_exti_source_select                  0x080085b5   Thumb Code   146  gd32f10x_gpio.o(i.gpio_exti_source_select)
    gpio_init                                0x0800864d   Thumb Code   172  gd32f10x_gpio.o(i.gpio_init)
    gpio_input_bit_get                       0x080086f9   Thumb Code    16  gd32f10x_gpio.o(i.gpio_input_bit_get)
    gpio_pin_remap_config                    0x08008709   Thumb Code   138  gd32f10x_gpio.o(i.gpio_pin_remap_config)
    i2c_ack_config                           0x08008799   Thumb Code    24  gd32f10x_i2c.o(i.i2c_ack_config)
    i2c_clock_config                         0x080087b1   Thumb Code   216  gd32f10x_i2c.o(i.i2c_clock_config)
    i2c_data_receive                         0x08008895   Thumb Code     8  gd32f10x_i2c.o(i.i2c_data_receive)
    i2c_data_transmit                        0x0800889d   Thumb Code     6  gd32f10x_i2c.o(i.i2c_data_transmit)
    i2c_enable                               0x080088a3   Thumb Code    10  gd32f10x_i2c.o(i.i2c_enable)
    i2c_flag_clear                           0x080088ad   Thumb Code    40  gd32f10x_i2c.o(i.i2c_flag_clear)
    i2c_flag_get                             0x080088d5   Thumb Code    30  gd32f10x_i2c.o(i.i2c_flag_get)
    i2c_master_addressing                    0x080088f3   Thumb Code    20  gd32f10x_i2c.o(i.i2c_master_addressing)
    i2c_mode_addr_config                     0x08008907   Thumb Code    28  gd32f10x_i2c.o(i.i2c_mode_addr_config)
    i2c_start_on_bus                         0x08008923   Thumb Code    10  gd32f10x_i2c.o(i.i2c_start_on_bus)
    i2c_stop_on_bus                          0x0800892d   Thumb Code    10  gd32f10x_i2c.o(i.i2c_stop_on_bus)
    main                                     0x08008939   Thumb Code   130  main.o(i.main)
    modbusAct                                0x080089c1   Thumb Code  1540  modbus.o(i.modbusAct)
    modbusParse                              0x08008fd5   Thumb Code   324  modbus.o(i.modbusParse)
    modbusValInit                            0x0800912d   Thumb Code    66  modbus.o(i.modbusValInit)
    nvic_config                              0x08009181   Thumb Code    32  hw_timer.o(i.nvic_config)
    nvic_irq_disable                         0x080091a1   Thumb Code    18  gd32f10x_misc.o(i.nvic_irq_disable)
    nvic_irq_enable                          0x080091b9   Thumb Code   162  gd32f10x_misc.o(i.nvic_irq_enable)
    nvic_priority_group_set                  0x08009265   Thumb Code    10  gd32f10x_misc.o(i.nvic_priority_group_set)
    nvic_vector_table_set                    0x08009279   Thumb Code    12  gd32f10x_misc.o(i.nvic_vector_table_set)
    rcu_clock_freq_get                       0x0800928d   Thumb Code   264  gd32f10x_rcu.o(i.rcu_clock_freq_get)
    rcu_periph_clock_enable                  0x080093b1   Thumb Code    28  gd32f10x_rcu.o(i.rcu_periph_clock_enable)
    rcu_periph_reset_disable                 0x080093d1   Thumb Code    28  gd32f10x_rcu.o(i.rcu_periph_reset_disable)
    rcu_periph_reset_enable                  0x080093f1   Thumb Code    28  gd32f10x_rcu.o(i.rcu_periph_reset_enable)
    systick_clksource_set                    0x080094dd   Thumb Code    40  gd32f10x_misc.o(i.systick_clksource_set)
    systick_config                           0x08009505   Thumb Code    46  systick.o(i.systick_config)
    timer_deinit                             0x08009549   Thumb Code   210  gd32f10x_timer.o(i.timer_deinit)
    timer_disable                            0x08009625   Thumb Code    10  gd32f10x_timer.o(i.timer_disable)
    timer_enable                             0x0800962f   Thumb Code    10  gd32f10x_timer.o(i.timer_enable)
    timer_init                               0x08009639   Thumb Code   170  gd32f10x_timer.o(i.timer_init)
    timer_interrupt_enable                   0x08009719   Thumb Code     8  gd32f10x_timer.o(i.timer_interrupt_enable)
    timer_interrupt_flag_clear               0x08009721   Thumb Code     6  gd32f10x_timer.o(i.timer_interrupt_flag_clear)
    timer_interrupt_flag_get                 0x08009727   Thumb Code    24  gd32f10x_timer.o(i.timer_interrupt_flag_get)
    usart_baudrate_set                       0x08009741   Thumb Code   136  gd32f10x_usart.o(i.usart_baudrate_set)
    usart_data_receive                       0x080097d1   Thumb Code    10  gd32f10x_usart.o(i.usart_data_receive)
    usart_data_transmit                      0x080097db   Thumb Code     8  gd32f10x_usart.o(i.usart_data_transmit)
    usart_deinit                             0x080097e5   Thumb Code   136  gd32f10x_usart.o(i.usart_deinit)
    usart_disable                            0x08009875   Thumb Code    10  gd32f10x_usart.o(i.usart_disable)
    usart_enable                             0x0800987f   Thumb Code    10  gd32f10x_usart.o(i.usart_enable)
    usart_flag_get                           0x08009889   Thumb Code    30  gd32f10x_usart.o(i.usart_flag_get)
    usart_hardware_flow_cts_config           0x080098a7   Thumb Code    16  gd32f10x_usart.o(i.usart_hardware_flow_cts_config)
    usart_hardware_flow_rts_config           0x080098b7   Thumb Code    16  gd32f10x_usart.o(i.usart_hardware_flow_rts_config)
    usart_interrupt_disable                  0x080098c7   Thumb Code    26  gd32f10x_usart.o(i.usart_interrupt_disable)
    usart_interrupt_enable                   0x080098e1   Thumb Code    26  gd32f10x_usart.o(i.usart_interrupt_enable)
    usart_interrupt_flag_clear               0x080098fb   Thumb Code    26  gd32f10x_usart.o(i.usart_interrupt_flag_clear)
    usart_interrupt_flag_get                 0x08009915   Thumb Code    56  gd32f10x_usart.o(i.usart_interrupt_flag_get)
    usart_parity_config                      0x0800994d   Thumb Code    16  gd32f10x_usart.o(i.usart_parity_config)
    usart_receive_config                     0x0800995d   Thumb Code    16  gd32f10x_usart.o(i.usart_receive_config)
    usart_stop_bit_set                       0x0800996d   Thumb Code    16  gd32f10x_usart.o(i.usart_stop_bit_set)
    usart_transmit_config                    0x0800997d   Thumb Code    16  gd32f10x_usart.o(i.usart_transmit_config)
    usart_word_length_set                    0x0800998d   Thumb Code    16  gd32f10x_usart.o(i.usart_word_length_set)
    Region$$Table$$Base                      0x08009a48   Number         0  anon$$obj.o(Region$$Table)
    Region$$Table$$Limit                     0x08009a68   Number         0  anon$$obj.o(Region$$Table)
    SystemCoreClock                          0x20000000   Data           4  system_gd32f10x.o(.data)
    systemFlag                               0x2000000c   Data           4  init.o(.data)
    Version                                  0x20000010   Data           6  init.o(.data)
    table                                    0x2000001c   Data         296  modbus.o(.data)
    Wtable                                   0x20000144   Data         112  modbus.o(.data)
    WtempHumiTable                           0x200001b4   Data          56  modbus.o(.data)
    PakTimer                                 0x200003f6   Data           4  commucateslave.o(.data)
    ProFunctionFlag                          0x20000404   Data           4  protocol.o(.data)
    funTable                                 0x20000408   Data          40  protocol.o(.data)
    TempVal                                  0x20000444   Data           4  ds18b20.o(.data)
    ComunHead                                0x20000c4d   Data           1  hw_uart.o(.data)
    ComunTail                                0x20000c4e   Data           1  hw_uart.o(.data)
    CommunCount                              0x20000c4f   Data           1  hw_uart.o(.data)
    __stdout                                 0x20000c74   Data           4  stdout.o(.data)
    SigInfo                                  0x20000c78   Data          12  init.o(.bss)
    StoreInfo                                0x20000c84   Data         588  init.o(.bss)
    BackUpInfo                               0x20000ed0   Data          76  init.o(.bss)
    modbus                                   0x20000f1c   Data         258  modbus.o(.bss)
    TempHumiData                             0x20001020   Data         464  modbus.o(.bss)
    PrtocolStr                               0x200012f0   Data         156  commucateslave.o(.bss)
    ProStr                                   0x2000138c   Data         205  protocol.o(.bss)
    TimeStr                                  0x20001524   Data          12  isl1208.o(.bss)
    NbInfo                                   0x20001530   Data         136  wh_nb73.o(.bss)
    StoreConf                                0x200015b8   Data          40  wh_nb73.o(.bss)
    CommunBuff                               0x20001d3c   Data         255  hw_uart.o(.bss)
    __initial_sp                             0x20003e68   Data           0  startup_gd32f10x_md.o(STACK)



==============================================================================

Memory Map of the image

  Image Entry point : 0x08000105

  Load Region LR_IROM1 (Base: 0x08000000, Size: 0x0000a6e0, Max: 0x00010000, ABSOLUTE, COMPRESSED[0x0000a244])

    Execution Region ER_IROM1 (Exec base: 0x08000000, Load base: 0x08000000, Size: 0x00009a68, Max: 0x00010000, ABSOLUTE)

    Exec Addr    Load Addr    Size         Type   Attr      Idx    E Section Name        Object

    0x08000000   0x08000000   0x00000104   Data   RO          139    RESET               startup_gd32f10x_md.o
    0x08000104   0x08000104   0x00000000   Code   RO         5814  * .ARM.Collect$$$$00000000  mc_w.l(entry.o)
    0x08000104   0x08000104   0x00000004   Code   RO         6124    .ARM.Collect$$$$00000001  mc_w.l(entry2.o)
    0x08000108   0x08000108   0x00000004   Code   RO         6127    .ARM.Collect$$$$00000004  mc_w.l(entry5.o)
    0x0800010c   0x0800010c   0x00000000   Code   RO         6129    .ARM.Collect$$$$00000008  mc_w.l(entry7b.o)
    0x0800010c   0x0800010c   0x00000000   Code   RO         6131    .ARM.Collect$$$$0000000A  mc_w.l(entry8b.o)
    0x0800010c   0x0800010c   0x00000008   Code   RO         6132    .ARM.Collect$$$$0000000B  mc_w.l(entry9a.o)
    0x08000114   0x08000114   0x00000000   Code   RO         6134    .ARM.Collect$$$$0000000D  mc_w.l(entry10a.o)
    0x08000114   0x08000114   0x00000000   Code   RO         6136    .ARM.Collect$$$$0000000F  mc_w.l(entry11a.o)
    0x08000114   0x08000114   0x00000004   Code   RO         6125    .ARM.Collect$$$$00002712  mc_w.l(entry2.o)
    0x08000118   0x08000118   0x00000024   Code   RO          140    .text               startup_gd32f10x_md.o
    0x0800013c   0x0800013c   0x00000024   Code   RO         5817    .text               mc_w.l(rand.o)
    0x08000160   0x08000160   0x000000a8   Code   RO         5824    .text               mc_w.l(mktime.o)
    0x08000208   0x08000208   0x00000024   Code   RO         5827    .text               mc_w.l(memcpya.o)
    0x0800022c   0x0800022c   0x00000024   Code   RO         5829    .text               mc_w.l(memseta.o)
    0x08000250   0x08000250   0x00000024   Code   RO         5831    .text               mc_w.l(strstr.o)
    0x08000274   0x08000274   0x0000000e   Code   RO         5833    .text               mc_w.l(strlen.o)
    0x08000282   0x08000282   0x0000001a   Code   RO         5835    .text               mc_w.l(memcmp.o)
    0x0800029c   0x0800029c   0x000000b0   Code   RO         6100    .text               mf_w.l(fadd.o)
    0x0800034c   0x0800034c   0x00000064   Code   RO         6102    .text               mf_w.l(fmul.o)
    0x080003b0   0x080003b0   0x0000007c   Code   RO         6104    .text               mf_w.l(fdiv.o)
    0x0800042c   0x0800042c   0x0000014e   Code   RO         6106    .text               mf_w.l(dadd.o)
    0x0800057a   0x0800057a   0x000000e4   Code   RO         6108    .text               mf_w.l(dmul.o)
    0x0800065e   0x0800065e   0x000000de   Code   RO         6110    .text               mf_w.l(ddiv.o)
    0x0800073c   0x0800073c   0x00000012   Code   RO         6112    .text               mf_w.l(fflti.o)
    0x0800074e   0x0800074e   0x0000000a   Code   RO         6114    .text               mf_w.l(ffltui.o)
    0x08000758   0x08000758   0x00000028   Code   RO         6116    .text               mf_w.l(ffixui.o)
    0x08000780   0x08000780   0x00000026   Code   RO         6118    .text               mf_w.l(f2d.o)
    0x080007a6   0x080007a6   0x00000002   PAD
    0x080007a8   0x080007a8   0x00000030   Code   RO         6120    .text               mf_w.l(cdrcmple.o)
    0x080007d8   0x080007d8   0x00000038   Code   RO         6122    .text               mf_w.l(d2f.o)
    0x08000810   0x08000810   0x0000002c   Code   RO         6139    .text               mc_w.l(uidiv.o)
    0x0800083c   0x0800083c   0x00000062   Code   RO         6141    .text               mc_w.l(uldiv.o)
    0x0800089e   0x0800089e   0x0000001e   Code   RO         6143    .text               mc_w.l(llshl.o)
    0x080008bc   0x080008bc   0x00000024   Code   RO         6145    .text               mc_w.l(llsshr.o)
    0x080008e0   0x080008e0   0x0000000c   Code   RO         6147    .text               mc_w.l(localtime_w.o)
    0x080008ec   0x080008ec   0x0000008c   Code   RO         6150    .text               mc_w.l(localtime_i.o)
    0x08000978   0x08000978   0x00000000   Code   RO         6153    .text               mc_w.l(iusefp.o)
    0x08000978   0x08000978   0x0000006e   Code   RO         6154    .text               mf_w.l(fepilogue.o)
    0x080009e6   0x080009e6   0x000000ba   Code   RO         6156    .text               mf_w.l(depilogue.o)
    0x08000aa0   0x08000aa0   0x00000030   Code   RO         6158    .text               mf_w.l(dfixul.o)
    0x08000ad0   0x08000ad0   0x00000024   Code   RO         6160    .text               mc_w.l(init.o)
    0x08000af4   0x08000af4   0x00000020   Code   RO         6162    .text               mc_w.l(llushr.o)
    0x08000b14   0x08000b14   0x00000056   Code   RO         6172    .text               mc_w.l(__dczerorl2.o)
    0x08000b6a   0x08000b6a   0x00000002   PAD
    0x08000b6c   0x08000b6c   0x000000a8   Code   RO         4847    i.AsynCheck         wh_nb73.o
    0x08000c14   0x08000c14   0x000000a8   Code   RO         3890    i.BackUpAdd         init.o
    0x08000cbc   0x08000cbc   0x00000048   Code   RO         3891    i.BackUpClearOne    init.o
    0x08000d04   0x08000d04   0x00000014   Code   RO         4768    i.BcdToByte         isl1208.o
    0x08000d18   0x08000d18   0x00000090   Code   RO         4410    i.BuildSendProPak   protocol.o
    0x08000da8   0x08000da8   0x00000004   Code   RO         3676    i.BusFault_Handler  gd32f10x_it.o
    0x08000dac   0x08000dac   0x00000042   Code   RO         4848    i.Byte2HexString    wh_nb73.o
    0x08000dee   0x08000dee   0x00000018   Code   RO         4769    i.ByteToBcd         isl1208.o
    0x08000e06   0x08000e06   0x00000002   PAD
    0x08000e08   0x08000e08   0x00000034   Code   RO         4849    i.CCID_TO_BCD       wh_nb73.o
    0x08000e3c   0x08000e3c   0x0000001c   Code   RO         5689    i.CheckCRC          hw_fmc.o
    0x08000e58   0x08000e58   0x00000018   Code   RO         3813    i.CheckLedNormal    main.o
    0x08000e70   0x08000e70   0x00000048   Code   RO         4850    i.CheckNet          wh_nb73.o
    0x08000eb8   0x08000eb8   0x00000084   Code   RO         3947    i.CheckTemMax       modbus.o
    0x08000f3c   0x08000f3c   0x00000084   Code   RO         3948    i.CheckTemMin       modbus.o
    0x08000fc0   0x08000fc0   0x000000b8   Code   RO         5357    i.Cj2301CheckConnect  cj2301.o
    0x08001078   0x08001078   0x00000024   Code   RO         5358    i.Cj2301_EndRead    cj2301.o
    0x0800109c   0x0800109c   0x000000c0   Code   RO         5359    i.Cj2301_Init       cj2301.o
    0x0800115c   0x0800115c   0x0000002c   Code   RO         5360    i.Cj2301_Read       cj2301.o
    0x08001188   0x08001188   0x000000e0   Code   RO         5361    i.Cj2301_ReadTempHumi  cj2301.o
    0x08001268   0x08001268   0x000000a0   Code   RO         5362    i.Cj2301_StartReadTempHumi  cj2301.o
    0x08001308   0x08001308   0x00000010   Code   RO         4411    i.ClearData         protocol.o
    0x08001318   0x08001318   0x0000001c   Code   RO         4851    i.ClearRevBuf       wh_nb73.o
    0x08001334   0x08001334   0x00000054   Code   RO         5483    i.CommunAdd         hw_uart.o
    0x08001388   0x08001388   0x00000014   Code   RO         5484    i.CommunCheck       hw_uart.o
    0x0800139c   0x0800139c   0x0000005c   Code   RO         5485    i.CommunGetData     hw_uart.o
    0x080013f8   0x080013f8   0x00000030   Code   RO         5486    i.CommunUartSendBuf  hw_uart.o
    0x08001428   0x08001428   0x00000030   Code   RO         4852    i.ConfResCheck      wh_nb73.o
    0x08001458   0x08001458   0x00000050   Code   RO         4853    i.ConnectServer     wh_nb73.o
    0x080014a8   0x080014a8   0x00000040   Code   RO         4854    i.CreateSocket      wh_nb73.o
    0x080014e8   0x080014e8   0x00000018   Code   RO         4855    i.CreateSocketDisable  wh_nb73.o
    0x08001500   0x08001500   0x00000014   Code   RO         4856    i.CreateSocketEnable  wh_nb73.o
    0x08001514   0x08001514   0x00000024   Code   RO         4857    i.CreateSocketFunc  wh_nb73.o
    0x08001538   0x08001538   0x00000314   Code   RO         4676    i.DS18B20GetIntTemp  ds18b20.o
    0x0800184c   0x0800184c   0x000000e0   Code   RO         4677    i.DS18B20_Check     ds18b20.o
    0x0800192c   0x0800192c   0x000000d0   Code   RO         4678    i.DS18B20_Init      ds18b20.o
    0x080019fc   0x080019fc   0x0000006c   Code   RO         4679    i.DS18B20_Read_Bit  ds18b20.o
    0x08001a68   0x08001a68   0x00000022   Code   RO         4680    i.DS18B20_Read_Byte  ds18b20.o
    0x08001a8a   0x08001a8a   0x00000002   PAD
    0x08001a8c   0x08001a8c   0x0000007c   Code   RO         4681    i.DS18B20_Rst       ds18b20.o
    0x08001b08   0x08001b08   0x0000002e   Code   RO         4682    i.DS18B20_Start     ds18b20.o
    0x08001b36   0x08001b36   0x00000002   PAD
    0x08001b38   0x08001b38   0x00000070   Code   RO         4683    i.DS18B20_Write_Byte  ds18b20.o
    0x08001ba8   0x08001ba8   0x00000002   Code   RO         3677    i.DebugMon_Handler  gd32f10x_it.o
    0x08001baa   0x08001baa   0x00000002   PAD
    0x08001bac   0x08001bac   0x00000140   Code   RO         5624    i.EXTI10_15_IRQHandler  hw_exit.o
    0x08001cec   0x08001cec   0x00000020   Code   RO         4338    i.EnterBypass       commucateslave.o
    0x08001d0c   0x08001d0c   0x00000048   Code   RO         4339    i.EnterUpgradeAction  commucateslave.o
    0x08001d54   0x08001d54   0x000000a8   Code   RO         3949    i.ExitBypassParse   modbus.o
    0x08001dfc   0x08001dfc   0x000000b4   Code   RO         5625    i.ExitInit          hw_exit.o
    0x08001eb0   0x08001eb0   0x00000078   Code   RO         4686    i.Ext_DS18B20_Write_Byte  ds18b20.o
    0x08001f28   0x08001f28   0x00000130   Code   RO         5690    i.FMC_StoreInfoInit  hw_fmc.o
    0x08002058   0x08002058   0x0000002c   Code   RO         4859    i.GetAttach         wh_nb73.o
    0x08002084   0x08002084   0x00000018   Code   RO         4860    i.GetAttachDisable  wh_nb73.o
    0x0800209c   0x0800209c   0x00000024   Code   RO         4861    i.GetAttachFunc     wh_nb73.o
    0x080020c0   0x080020c0   0x00000014   Code   RO         4862    i.GetAttchEnable    wh_nb73.o
    0x080020d4   0x080020d4   0x0000000c   Code   RO         3950    i.GetBaudRateH      modbus.o
    0x080020e0   0x080020e0   0x0000000c   Code   RO         3951    i.GetBaudRateL      modbus.o
    0x080020ec   0x080020ec   0x00000030   Code   RO         4863    i.GetCCID           wh_nb73.o
    0x0800211c   0x0800211c   0x00000018   Code   RO         4864    i.GetCCIDDisable    wh_nb73.o
    0x08002134   0x08002134   0x00000014   Code   RO         4865    i.GetCcidEnable     wh_nb73.o
    0x08002148   0x08002148   0x00000024   Code   RO         4866    i.GetCcidFunc       wh_nb73.o
    0x0800216c   0x0800216c   0x0000000c   Code   RO         3952    i.GetCh3_Set        modbus.o
    0x08002178   0x08002178   0x000000b4   Code   RO         5626    i.GetChannel3_Status  hw_exit.o
    0x0800222c   0x0800222c   0x00000028   Code   RO         3953    i.GetChannel4Alarm  modbus.o
    0x08002254   0x08002254   0x0000001e   Code   RO         4867    i.GetCheckSum       wh_nb73.o
    0x08002272   0x08002272   0x00000002   PAD
    0x08002274   0x08002274   0x00000010   Code   RO         3954    i.GetCloseAbnormal  modbus.o
    0x08002284   0x08002284   0x00000010   Code   RO         3955    i.GetCloseAlarm     modbus.o
    0x08002294   0x08002294   0x0000003c   Code   RO         3956    i.GetCloseFlag      modbus.o
    0x080022d0   0x080022d0   0x00000040   Code   RO         3957    i.GetCloseTime      modbus.o
    0x08002310   0x08002310   0x00000040   Code   RO         3958    i.GetCloseUnixH     modbus.o
    0x08002350   0x08002350   0x0000006c   Code   RO         3959    i.GetCloseUnixL     modbus.o
    0x080023bc   0x080023bc   0x00000014   Code   RO         3960    i.GetDeviceStatus   modbus.o
    0x080023d0   0x080023d0   0x000001a0   Code   RO         5627    i.GetExitPinVal     hw_exit.o
    0x08002570   0x08002570   0x00000018   Code   RO         3961    i.GetExterTem       modbus.o
    0x08002588   0x08002588   0x00000014   Code   RO         3962    i.GetHumi           modbus.o
    0x0800259c   0x0800259c   0x0000000c   Code   RO         3963    i.GetHumiAbnormal   modbus.o
    0x080025a8   0x080025a8   0x00000018   Code   RO         4412    i.GetHumiIdDisable  protocol.o
    0x080025c0   0x080025c0   0x00000014   Code   RO         4413    i.GetHumiIdEnable   protocol.o
    0x080025d4   0x080025d4   0x00000024   Code   RO         4414    i.GetHumiIdFun      protocol.o
    0x080025f8   0x080025f8   0x00000014   Code   RO         4415    i.GetHumiValEnable  protocol.o
    0x0800260c   0x0800260c   0x00000024   Code   RO         4416    i.GetHumiValFun     protocol.o
    0x08002630   0x08002630   0x00000018   Code   RO         4417    i.GetHumipValDisable  protocol.o
    0x08002648   0x08002648   0x00000004   Code   RO         3964    i.GetHwVer          modbus.o
    0x0800264c   0x0800264c   0x0000002c   Code   RO         4868    i.GetImei           wh_nb73.o
    0x08002678   0x08002678   0x00000018   Code   RO         4869    i.GetImeiDisable    wh_nb73.o
    0x08002690   0x08002690   0x00000014   Code   RO         4870    i.GetImeiEnable     wh_nb73.o
    0x080026a4   0x080026a4   0x00000024   Code   RO         4871    i.GetImeiFunc       wh_nb73.o
    0x080026c8   0x080026c8   0x0000000c   Code   RO         3965    i.GetInterTem       modbus.o
    0x080026d4   0x080026d4   0x00000030   Code   RO         4872    i.GetIp             wh_nb73.o
    0x08002704   0x08002704   0x00000018   Code   RO         4873    i.GetIpDisable      wh_nb73.o
    0x0800271c   0x0800271c   0x00000014   Code   RO         4874    i.GetIpEnable       wh_nb73.o
    0x08002730   0x08002730   0x00000024   Code   RO         4875    i.GetIpFunc         wh_nb73.o
    0x08002754   0x08002754   0x00000010   Code   RO         3966    i.GetOpenAbnormal   modbus.o
    0x08002764   0x08002764   0x00000010   Code   RO         3967    i.GetOpenAlarm      modbus.o
    0x08002774   0x08002774   0x0000003c   Code   RO         3968    i.GetOpenCloseFlag  modbus.o
    0x080027b0   0x080027b0   0x00000040   Code   RO         3969    i.GetOpenCloseTime  modbus.o
    0x080027f0   0x080027f0   0x00000040   Code   RO         3970    i.GetOpenCloseUnixH  modbus.o
    0x08002830   0x08002830   0x0000006c   Code   RO         3971    i.GetOpenCloseUnixL  modbus.o
    0x0800289c   0x0800289c   0x00000030   Code   RO         4876    i.GetPCI            wh_nb73.o
    0x080028cc   0x080028cc   0x0000003c   Code   RO         4418    i.GetParseProtocolStatus  protocol.o
    0x08002908   0x08002908   0x00000018   Code   RO         4877    i.GetPciDisable     wh_nb73.o
    0x08002920   0x08002920   0x00000014   Code   RO         4878    i.GetPciEnable      wh_nb73.o
    0x08002934   0x08002934   0x00000024   Code   RO         4879    i.GetPciFunc        wh_nb73.o
    0x08002958   0x08002958   0x0000002c   Code   RO         4880    i.GetRSSI           wh_nb73.o
    0x08002984   0x08002984   0x0000000c   Code   RO         3972    i.GetRTC_TimeH      modbus.o
    0x08002990   0x08002990   0x00000010   Code   RO         3973    i.GetRTC_TimeL      modbus.o
    0x080029a0   0x080029a0   0x00000018   Code   RO         4881    i.GetRssiDisable    wh_nb73.o
    0x080029b8   0x080029b8   0x00000014   Code   RO         4882    i.GetRssiEnable     wh_nb73.o
    0x080029cc   0x080029cc   0x00000024   Code   RO         4883    i.GetRssiFunc       wh_nb73.o
    0x080029f0   0x080029f0   0x000000e4   Code   RO         4770    i.GetRtcTime        isl1208.o
    0x08002ad4   0x08002ad4   0x0000000c   Code   RO         3974    i.GetSlaveId        modbus.o
    0x08002ae0   0x08002ae0   0x0000000c   Code   RO         3975    i.GetTemAbnormal    modbus.o
    0x08002aec   0x08002aec   0x0000000c   Code   RO         3976    i.GetTemDiffAlarm   modbus.o
    0x08002af8   0x08002af8   0x0000000c   Code   RO         3977    i.GetTemSimpleInterval  modbus.o
    0x08002b04   0x08002b04   0x00000018   Code   RO         4419    i.GetTempIdDisable  protocol.o
    0x08002b1c   0x08002b1c   0x00000014   Code   RO         4420    i.GetTempIdEnable   protocol.o
    0x08002b30   0x08002b30   0x00000024   Code   RO         4421    i.GetTempIdFun      protocol.o
    0x08002b54   0x08002b54   0x00000018   Code   RO         4422    i.GetTempValDisable  protocol.o
    0x08002b6c   0x08002b6c   0x00000014   Code   RO         4423    i.GetTempValEnable  protocol.o
    0x08002b80   0x08002b80   0x00000024   Code   RO         4424    i.GetTempValFun     protocol.o
    0x08002ba4   0x08002ba4   0x00000014   Code   RO         3978    i.GetUniqueID_HLLL  modbus.o
    0x08002bb8   0x08002bb8   0x00000014   Code   RO         3979    i.GetUniqueID_LHLL  modbus.o
    0x08002bcc   0x08002bcc   0x00000014   Code   RO         3980    i.GetUniqueID_LLHL  modbus.o
    0x08002be0   0x08002be0   0x00000014   Code   RO         3981    i.GetUniqueID_LLLH  modbus.o
    0x08002bf4   0x08002bf4   0x00000048   Code   RO         3982    i.GetWaterTemp      modbus.o
    0x08002c3c   0x08002c3c   0x000000d0   Code   RO         5363    i.GetWaterTemp      cj2301.o
    0x08002d0c   0x08002d0c   0x00000044   Code   RO         3983    i.GetWaterTempDiff  modbus.o
    0x08002d50   0x08002d50   0x00000018   Code   RO         4425    i.GetWlStatusDisable  protocol.o
    0x08002d68   0x08002d68   0x00000014   Code   RO         4426    i.GetWlStatusEnable  protocol.o
    0x08002d7c   0x08002d7c   0x00000024   Code   RO         4427    i.GetWlStatusFun    protocol.o
    0x08002da0   0x08002da0   0x0000002a   Code   RO         3984    i.GetWl_Diff        modbus.o
    0x08002dca   0x08002dca   0x00000020   Code   RO         3985    i.GetWl_Max         modbus.o
    0x08002dea   0x08002dea   0x00000020   Code   RO         3986    i.GetWl_Min         modbus.o
    0x08002e0a   0x08002e0a   0x00000002   PAD
    0x08002e0c   0x08002e0c   0x000000d0   Code   RO         3892    i.GpioInit          init.o
    0x08002edc   0x08002edc   0x00000004   Code   RO         3678    i.HardFault_Handler  gd32f10x_it.o
    0x08002ee0   0x08002ee0   0x0000004c   Code   RO         5487    i.HostAdd           hw_uart.o
    0x08002f2c   0x08002f2c   0x00000014   Code   RO         5488    i.HostCheck         hw_uart.o
    0x08002f40   0x08002f40   0x00000054   Code   RO         5489    i.HostGetData       hw_uart.o
    0x08002f94   0x08002f94   0x0000003c   Code   RO         5490    i.HostUartSendBuf   hw_uart.o
    0x08002fd0   0x08002fd0   0x00000044   Code   RO         5669    i.I2C_Init          hw_i2c.o
    0x08003014   0x08003014   0x00000034   Code   RO         4884    i.IMEI_TO_BCD       wh_nb73.o
    0x08003048   0x08003048   0x00000080   Code   RO         4771    i.Isl1208GetTime    isl1208.o
    0x080030c8   0x080030c8   0x00000050   Code   RO         4772    i.Isl1208Init       isl1208.o
    0x08003118   0x08003118   0x000000e8   Code   RO         4773    i.Isl1208Read       isl1208.o
    0x08003200   0x08003200   0x0000009c   Code   RO         4774    i.Isl1208Write      isl1208.o
    0x0800329c   0x0800329c   0x00000104   Code   RO         3893    i.MCU_Init          init.o
    0x080033a0   0x080033a0   0x00000004   Code   RO         3679    i.MemManage_Handler  gd32f10x_it.o
    0x080033a4   0x080033a4   0x00000068   Code   RO         3987    i.ModbusProtocol    modbus.o
    0x0800340c   0x0800340c   0x00000010   Code   RO         3988    i.ModbusSend        modbus.o
    0x0800341c   0x0800341c   0x00000030   Code   RO         3989    i.ModbusTimerAct    modbus.o
    0x0800344c   0x0800344c   0x00000010   Code   RO         3990    i.ModbusTimerDisable  modbus.o
    0x0800345c   0x0800345c   0x00000010   Code   RO         3991    i.ModbusTimerEnable  modbus.o
    0x0800346c   0x0800346c   0x00000030   Code   RO         3992    i.Modbus_Crc_Compute  modbus.o
    0x0800349c   0x0800349c   0x0000003c   Code   RO         4885    i.NB_Control        wh_nb73.o
    0x080034d8   0x080034d8   0x00000002   Code   RO         3680    i.NMI_Handler       gd32f10x_it.o
    0x080034da   0x080034da   0x00000002   PAD
    0x080034dc   0x080034dc   0x00000054   Code   RO         5491    i.NbAdd             hw_uart.o
    0x08003530   0x08003530   0x00000044   Code   RO         4886    i.NbApplication     wh_nb73.o
    0x08003574   0x08003574   0x00000014   Code   RO         5492    i.NbCheck           hw_uart.o
    0x08003588   0x08003588   0x0000005c   Code   RO         5493    i.NbGetData         hw_uart.o
    0x080035e4   0x080035e4   0x00000060   Code   RO         4887    i.NbParse           wh_nb73.o
    0x08003644   0x08003644   0x000000f0   Code   RO         4888    i.NbReset           wh_nb73.o
    0x08003734   0x08003734   0x00000018   Code   RO         4889    i.NbResetDisable    wh_nb73.o
    0x0800374c   0x0800374c   0x00000014   Code   RO         4890    i.NbResetEnable     wh_nb73.o
    0x08003760   0x08003760   0x00000024   Code   RO         4891    i.NbResetFunc       wh_nb73.o
    0x08003784   0x08003784   0x00000048   Code   RO         5494    i.NbUartSendBuf     hw_uart.o
    0x080037cc   0x080037cc   0x00000024   Code   RO         4340    i.PakAction         commucateslave.o
    0x080037f0   0x080037f0   0x00000038   Code   RO         4341    i.PakStuctInit      commucateslave.o
    0x08003828   0x08003828   0x00000010   Code   RO         4342    i.PakTimerStart     commucateslave.o
    0x08003838   0x08003838   0x00000010   Code   RO         4343    i.PakTimerStop      commucateslave.o
    0x08003848   0x08003848   0x00000078   Code   RO         4892    i.ParseConnectServer  wh_nb73.o
    0x080038c0   0x080038c0   0x000000a8   Code   RO         4893    i.ParseCreateSocket  wh_nb73.o
    0x08003968   0x08003968   0x000000b8   Code   RO         4894    i.ParseGetAttach    wh_nb73.o
    0x08003a20   0x08003a20   0x000000b8   Code   RO         4895    i.ParseGetCCID      wh_nb73.o
    0x08003ad8   0x08003ad8   0x000000c0   Code   RO         4896    i.ParseGetImei      wh_nb73.o
    0x08003b98   0x08003b98   0x00000078   Code   RO         4897    i.ParseGetIp        wh_nb73.o
    0x08003c10   0x08003c10   0x00000118   Code   RO         4898    i.ParseGetPCI       wh_nb73.o
    0x08003d28   0x08003d28   0x00000100   Code   RO         4899    i.ParseGetRSSI      wh_nb73.o
    0x08003e28   0x08003e28   0x00000174   Code   RO         4428    i.ParsePro          protocol.o
    0x08003f9c   0x08003f9c   0x000000d4   Code   RO         4900    i.ParseReadData     wh_nb73.o
    0x08004070   0x08004070   0x0000004c   Code   RO         4901    i.ParseSendData     wh_nb73.o
    0x080040bc   0x080040bc   0x00000002   Code   RO         3681    i.PendSV_Handler    gd32f10x_it.o
    0x080040be   0x080040be   0x00000002   PAD
    0x080040c0   0x080040c0   0x000001a4   Code   RO         4429    i.ProCheckRunFunc   protocol.o
    0x08004264   0x08004264   0x00000030   Code   RO         4430    i.ProtocolTask      protocol.o
    0x08004294   0x08004294   0x00000060   Code   RO         3894    i.RcuClockInit      init.o
    0x080042f4   0x080042f4   0x00000050   Code   RO         5364    i.ReadBit           cj2301.o
    0x08004344   0x08004344   0x0000002a   Code   RO         5365    i.ReadByte          cj2301.o
    0x0800436e   0x0800436e   0x00000002   PAD
    0x08004370   0x08004370   0x00000040   Code   RO         4902    i.ReadData          wh_nb73.o
    0x080043b0   0x080043b0   0x000003cc   Code   RO         4903    i.ReadData2Byte     wh_nb73.o
    0x0800477c   0x0800477c   0x00000018   Code   RO         4904    i.ReadDataDisable   wh_nb73.o
    0x08004794   0x08004794   0x00000024   Code   RO         4906    i.ReadDataFunc      wh_nb73.o
    0x080047b8   0x080047b8   0x00000110   Code   RO         4344    i.ReceParse         commucateslave.o
    0x080048c8   0x080048c8   0x00000044   Code   RO         4907    i.ResBuffAdd        wh_nb73.o
    0x0800490c   0x0800490c   0x00000088   Code   RO         4345    i.ResponsePak       commucateslave.o
    0x08004994   0x08004994   0x00000080   Code   RO         4908    i.RevDataRead       wh_nb73.o
    0x08004a14   0x08004a14   0x00000076   Code   RO         4775    i.RtcSetTime        isl1208.o
    0x08004a8a   0x08004a8a   0x00000002   PAD
    0x08004a8c   0x08004a8c   0x000000c4   Code   RO         4909    i.RunCreateSocket   wh_nb73.o
    0x08004b50   0x08004b50   0x00000078   Code   RO         4910    i.RunGetAttach      wh_nb73.o
    0x08004bc8   0x08004bc8   0x00000088   Code   RO         4911    i.RunGetCCID        wh_nb73.o
    0x08004c50   0x08004c50   0x000000a8   Code   RO         4431    i.RunGetHumiId      protocol.o
    0x08004cf8   0x08004cf8   0x00000094   Code   RO         4432    i.RunGetHumiVal     protocol.o
    0x08004d8c   0x08004d8c   0x000000ac   Code   RO         4912    i.RunGetImei        wh_nb73.o
    0x08004e38   0x08004e38   0x00000088   Code   RO         4913    i.RunGetIp          wh_nb73.o
    0x08004ec0   0x08004ec0   0x00000088   Code   RO         4914    i.RunGetPCI         wh_nb73.o
    0x08004f48   0x08004f48   0x0000006c   Code   RO         4915    i.RunGetRSSI        wh_nb73.o
    0x08004fb4   0x08004fb4   0x000000a8   Code   RO         4433    i.RunGetTempId      protocol.o
    0x0800505c   0x0800505c   0x00000094   Code   RO         4434    i.RunGetTempVal     protocol.o
    0x080050f0   0x080050f0   0x00000084   Code   RO         4435    i.RunGetWlStatus    protocol.o
    0x08005174   0x08005174   0x000000ac   Code   RO         4916    i.RunReadData       wh_nb73.o
    0x08005220   0x08005220   0x0000007c   Code   RO         4436    i.RunSendCommuncationStatus  protocol.o
    0x0800529c   0x0800529c   0x000000ac   Code   RO         4917    i.RunSendData       wh_nb73.o
    0x08005348   0x08005348   0x00000110   Code   RO         4437    i.RunSendMainBoardInfo  protocol.o
    0x08005458   0x08005458   0x00000068   Code   RO         4438    i.RunSendSignal     protocol.o
    0x080054c0   0x080054c0   0x000000b0   Code   RO         4439    i.RunSetAbnormal    protocol.o
    0x08005570   0x08005570   0x00000450   Code   RO         4440    i.RunSetSelfTempHumi  protocol.o
    0x080059c0   0x080059c0   0x00000002   Code   RO         3682    i.SVC_Handler       gd32f10x_it.o
    0x080059c2   0x080059c2   0x00000002   PAD
    0x080059c4   0x080059c4   0x00000020   Code   RO         4918    i.SenData           wh_nb73.o
    0x080059e4   0x080059e4   0x00000018   Code   RO         4441    i.SendCommuncationStatusDisable  protocol.o
    0x080059fc   0x080059fc   0x00000014   Code   RO         4442    i.SendCommuncationStatusEnable  protocol.o
    0x08005a10   0x08005a10   0x00000024   Code   RO         4443    i.SendCommuncationStatusFun  protocol.o
    0x08005a34   0x08005a34   0x00000278   Code   RO         4919    i.SendDataCheck     wh_nb73.o
    0x08005cac   0x08005cac   0x00000018   Code   RO         4920    i.SendDataDisable   wh_nb73.o
    0x08005cc4   0x08005cc4   0x00000014   Code   RO         4921    i.SendDataEnable    wh_nb73.o
    0x08005cd8   0x08005cd8   0x00000024   Code   RO         4922    i.SendDataFunc      wh_nb73.o
    0x08005cfc   0x08005cfc   0x00000018   Code   RO         4444    i.SendMainBoardInfoDisable  protocol.o
    0x08005d14   0x08005d14   0x00000014   Code   RO         4445    i.SendMainBoardInfoEnable  protocol.o
    0x08005d28   0x08005d28   0x00000024   Code   RO         4446    i.SendMainBoardInfoFun  protocol.o
    0x08005d4c   0x08005d4c   0x00000124   Code   RO         4923    i.SendRegCheck      wh_nb73.o
    0x08005e70   0x08005e70   0x00000018   Code   RO         4447    i.SendSignalDisable  protocol.o
    0x08005e88   0x08005e88   0x00000014   Code   RO         4448    i.SendSignalEnable  protocol.o
    0x08005e9c   0x08005e9c   0x00000024   Code   RO         4449    i.SendSignalFun     protocol.o
    0x08005ec0   0x08005ec0   0x00000018   Code   RO         4450    i.SetAbnormalDisable  protocol.o
    0x08005ed8   0x08005ed8   0x00000014   Code   RO         4451    i.SetAbnormalEnable  protocol.o
    0x08005eec   0x08005eec   0x00000024   Code   RO         4452    i.SetAbnormalFun    protocol.o
    0x08005f10   0x08005f10   0x00000014   Code   RO         3993    i.SetBaudRateH      modbus.o
    0x08005f24   0x08005f24   0x0000001c   Code   RO         3994    i.SetBaudRateL      modbus.o
    0x08005f40   0x08005f40   0x00000020   Code   RO         3995    i.SetCh3_Set        modbus.o
    0x08005f60   0x08005f60   0x00000014   Code   RO         3996    i.SetCloseAbnormal  modbus.o
    0x08005f74   0x08005f74   0x00000014   Code   RO         3997    i.SetCloseAlarm     modbus.o
    0x08005f88   0x08005f88   0x0000000c   Code   RO         3998    i.SetHumiAbnormal   modbus.o
    0x08005f94   0x08005f94   0x00000014   Code   RO         3999    i.SetOpenAbnormal   modbus.o
    0x08005fa8   0x08005fa8   0x00000014   Code   RO         4000    i.SetOpenAlarm      modbus.o
    0x08005fbc   0x08005fbc   0x0000000c   Code   RO         4001    i.SetRtcH           modbus.o
    0x08005fc8   0x08005fc8   0x00000030   Code   RO         4002    i.SetRtcL           modbus.o
    0x08005ff8   0x08005ff8   0x0000001c   Code   RO         4003    i.SetSelfHumi       modbus.o
    0x08006014   0x08006014   0x00000030   Code   RO         4004    i.SetSelfTemp1      modbus.o
    0x08006044   0x08006044   0x00000030   Code   RO         4005    i.SetSelfTemp2      modbus.o
    0x08006074   0x08006074   0x00000030   Code   RO         4006    i.SetSelfTemp3      modbus.o
    0x080060a4   0x080060a4   0x00000030   Code   RO         4007    i.SetSelfTemp4      modbus.o
    0x080060d4   0x080060d4   0x00000030   Code   RO         4008    i.SetSelfTemp5      modbus.o
    0x08006104   0x08006104   0x00000030   Code   RO         4009    i.SetSelfTemp6      modbus.o
    0x08006134   0x08006134   0x00000018   Code   RO         4453    i.SetSelfTempHumiDisable  protocol.o
    0x0800614c   0x0800614c   0x00000014   Code   RO         4454    i.SetSelfTempHumiEnable  protocol.o
    0x08006160   0x08006160   0x00000024   Code   RO         4455    i.SetSelfTempHumiFun  protocol.o
    0x08006184   0x08006184   0x00000018   Code   RO         4010    i.SetSlaveID        modbus.o
    0x0800619c   0x0800619c   0x00000014   Code   RO         4011    i.SetTemAbnormal    modbus.o
    0x080061b0   0x080061b0   0x00000014   Code   RO         4012    i.SetTemDiffAlarm   modbus.o
    0x080061c4   0x080061c4   0x00000014   Code   RO         4013    i.SetTemSimpleInterval  modbus.o
    0x080061d8   0x080061d8   0x000005e8   Code   RO         5628    i.SignalCheck       hw_exit.o
    0x080067c0   0x080067c0   0x00000002   Code   RO         4924    i.SignalCheckLed    wh_nb73.o
    0x080067c2   0x080067c2   0x00000002   PAD
    0x080067c4   0x080067c4   0x00000010   Code   RO         5425    i.SignalTimerDisable  hw_timer.o
    0x080067d4   0x080067d4   0x00000010   Code   RO         5426    i.SignalTimerEnable  hw_timer.o
    0x080067e4   0x080067e4   0x0000004c   Code   RO         5427    i.SignalTimerInit   hw_timer.o
    0x08006830   0x08006830   0x00000608   Code   RO         4925    i.SnedBufBuild      wh_nb73.o
    0x08006e38   0x08006e38   0x00000018   Code   RO         5691    i.StoreConfStore    hw_fmc.o
    0x08006e50   0x08006e50   0x00000034   Code   RO         5692    i.StoreConfUpdate   hw_fmc.o
    0x08006e84   0x08006e84   0x0000017c   Code   RO         5693    i.StoreInfoAdd      hw_fmc.o
    0x08007000   0x08007000   0x00000074   Code   RO         5694    i.StoreInfoCheck    hw_fmc.o
    0x08007074   0x08007074   0x00000044   Code   RO         5695    i.StorePageErase    hw_fmc.o
    0x080070b8   0x080070b8   0x00000002   Code   RO         3683    i.SysTick_Handler   gd32f10x_it.o
    0x080070ba   0x080070ba   0x00000002   PAD
    0x080070bc   0x080070bc   0x00000084   Code   RO            4    i.SystemInit        system_gd32f10x.o
    0x08007140   0x08007140   0x00000178   Code   RO         5428    i.TIMER1_IRQHandler  hw_timer.o
    0x080072b8   0x080072b8   0x0000002c   Code   RO         5429    i.TIMER2_IRQHandler  hw_timer.o
    0x080072e4   0x080072e4   0x00000056   Code   RO         5430    i.Timer_1ms_Init    hw_timer.o
    0x0800733a   0x0800733a   0x00000002   PAD
    0x0800733c   0x0800733c   0x00000030   Code   RO         5495    i.USART0_IRQHandler  hw_uart.o
    0x0800736c   0x0800736c   0x00000050   Code   RO         5496    i.USART1_IRQHandler  hw_uart.o
    0x080073bc   0x080073bc   0x00000030   Code   RO         5497    i.USART2_IRQHandler  hw_uart.o
    0x080073ec   0x080073ec   0x0000003c   Code   RO         4776    i.UTC_to_Unix       isl1208.o
    0x08007428   0x08007428   0x0000008c   Code   RO         5498    i.UartCommuncateInit  hw_uart.o
    0x080074b4   0x080074b4   0x00000094   Code   RO         5499    i.UartHostInit      hw_uart.o
    0x08007548   0x08007548   0x00000028   Code   RO         5500    i.UartHostReinit    hw_uart.o
    0x08007570   0x08007570   0x00000010   Code   RO         5501    i.UartInit          hw_uart.o
    0x08007580   0x08007580   0x0000008c   Code   RO         5502    i.UartNbInit        hw_uart.o
    0x0800760c   0x0800760c   0x0000008c   Code   RO         4777    i.Unix_to_UTC       isl1208.o
    0x08007698   0x08007698   0x00000004   Code   RO         3684    i.UsageFault_Handler  gd32f10x_it.o
    0x0800769c   0x0800769c   0x000000c4   Code   RO         3895    i.VarInit           init.o
    0x08007760   0x08007760   0x0000005c   Code   RO         5696    i.WriteStoreConf    hw_fmc.o
    0x080077bc   0x080077bc   0x0000005c   Code   RO         5697    i.WriteStoreInfo    hw_fmc.o
    0x08007818   0x08007818   0x00000020   Code   RO         6072    i.__0printf         mc_w.l(printfa.o)
    0x08007838   0x08007838   0x0000000e   Code   RO         6166    i.__scatterload_copy  mc_w.l(handlers.o)
    0x08007846   0x08007846   0x00000002   Code   RO         6167    i.__scatterload_null  mc_w.l(handlers.o)
    0x08007848   0x08007848   0x0000000e   Code   RO         6168    i.__scatterload_zeroinit  mc_w.l(handlers.o)
    0x08007856   0x08007856   0x00000002   PAD
    0x08007858   0x08007858   0x00000184   Code   RO         6079    i._fp_digits        mc_w.l(printfa.o)
    0x080079dc   0x080079dc   0x000006dc   Code   RO         6080    i._printf_core      mc_w.l(printfa.o)
    0x080080b8   0x080080b8   0x00000024   Code   RO         6081    i._printf_post_padding  mc_w.l(printfa.o)
    0x080080dc   0x080080dc   0x0000002e   Code   RO         6082    i._printf_pre_padding  mc_w.l(printfa.o)
    0x0800810a   0x0800810a   0x00000002   PAD
    0x0800810c   0x0800810c   0x00000060   Code   RO         3856    i.delay_1ms         systick.o
    0x0800816c   0x0800816c   0x00000060   Code   RO         3857    i.delay_1us         systick.o
    0x080081cc   0x080081cc   0x000000bc   Code   RO         1294    i.exti_init         gd32f10x_exti.o
    0x08008288   0x08008288   0x0000000c   Code   RO         1297    i.exti_interrupt_flag_clear  gd32f10x_exti.o
    0x08008294   0x08008294   0x00000018   Code   RO         1298    i.exti_interrupt_flag_get  gd32f10x_exti.o
    0x080082ac   0x080082ac   0x00000022   Code   RO         1377    i.fmc_bank0_ready_wait  gd32f10x_fmc.o
    0x080082ce   0x080082ce   0x00000002   PAD
    0x080082d0   0x080082d0   0x00000030   Code   RO         1378    i.fmc_bank0_state_get  gd32f10x_fmc.o
    0x08008300   0x08008300   0x00000022   Code   RO         1382    i.fmc_bank1_ready_wait  gd32f10x_fmc.o
    0x08008322   0x08008322   0x00000002   PAD
    0x08008324   0x08008324   0x00000030   Code   RO         1383    i.fmc_bank1_state_get  gd32f10x_fmc.o
    0x08008354   0x08008354   0x00000020   Code   RO         1385    i.fmc_flag_clear    gd32f10x_fmc.o
    0x08008374   0x08008374   0x0000002c   Code   RO         1392    i.fmc_lock          gd32f10x_fmc.o
    0x080083a0   0x080083a0   0x000000ec   Code   RO         1394    i.fmc_page_erase    gd32f10x_fmc.o
    0x0800848c   0x0800848c   0x00000044   Code   RO         1395    i.fmc_unlock        gd32f10x_fmc.o
    0x080084d0   0x080084d0   0x000000c0   Code   RO         1396    i.fmc_word_program  gd32f10x_fmc.o
    0x08008590   0x08008590   0x00000024   Code   RO         5503    i.fputc             hw_uart.o
    0x080085b4   0x080085b4   0x00000098   Code   RO         1651    i.gpio_exti_source_select  gd32f10x_gpio.o
    0x0800864c   0x0800864c   0x000000ac   Code   RO         1652    i.gpio_init         gd32f10x_gpio.o
    0x080086f8   0x080086f8   0x00000010   Code   RO         1653    i.gpio_input_bit_get  gd32f10x_gpio.o
    0x08008708   0x08008708   0x00000090   Code   RO         1658    i.gpio_pin_remap_config  gd32f10x_gpio.o
    0x08008798   0x08008798   0x00000018   Code   RO         1759    i.i2c_ack_config    gd32f10x_i2c.o
    0x080087b0   0x080087b0   0x000000e4   Code   RO         1761    i.i2c_clock_config  gd32f10x_i2c.o
    0x08008894   0x08008894   0x00000008   Code   RO         1762    i.i2c_data_receive  gd32f10x_i2c.o
    0x0800889c   0x0800889c   0x00000006   Code   RO         1763    i.i2c_data_transmit  gd32f10x_i2c.o
    0x080088a2   0x080088a2   0x0000000a   Code   RO         1770    i.i2c_enable        gd32f10x_i2c.o
    0x080088ac   0x080088ac   0x00000028   Code   RO         1771    i.i2c_flag_clear    gd32f10x_i2c.o
    0x080088d4   0x080088d4   0x0000001e   Code   RO         1772    i.i2c_flag_get      gd32f10x_i2c.o
    0x080088f2   0x080088f2   0x00000014   Code   RO         1777    i.i2c_master_addressing  gd32f10x_i2c.o
    0x08008906   0x08008906   0x0000001c   Code   RO         1778    i.i2c_mode_addr_config  gd32f10x_i2c.o
    0x08008922   0x08008922   0x0000000a   Code   RO         1787    i.i2c_start_on_bus  gd32f10x_i2c.o
    0x0800892c   0x0800892c   0x0000000a   Code   RO         1788    i.i2c_stop_on_bus   gd32f10x_i2c.o
    0x08008936   0x08008936   0x00000002   PAD
    0x08008938   0x08008938   0x00000088   Code   RO         3814    i.main              main.o
    0x080089c0   0x080089c0   0x00000614   Code   RO         4014    i.modbusAct         modbus.o
    0x08008fd4   0x08008fd4   0x00000158   Code   RO         4015    i.modbusParse       modbus.o
    0x0800912c   0x0800912c   0x00000054   Code   RO         4016    i.modbusValInit     modbus.o
    0x08009180   0x08009180   0x00000020   Code   RO         5431    i.nvic_config       hw_timer.o
    0x080091a0   0x080091a0   0x00000018   Code   RO         1959    i.nvic_irq_disable  gd32f10x_misc.o
    0x080091b8   0x080091b8   0x000000ac   Code   RO         1960    i.nvic_irq_enable   gd32f10x_misc.o
    0x08009264   0x08009264   0x00000014   Code   RO         1961    i.nvic_priority_group_set  gd32f10x_misc.o
    0x08009278   0x08009278   0x00000014   Code   RO         1962    i.nvic_vector_table_set  gd32f10x_misc.o
    0x0800928c   0x0800928c   0x00000124   Code   RO         2110    i.rcu_clock_freq_get  gd32f10x_rcu.o
    0x080093b0   0x080093b0   0x00000020   Code   RO         2127    i.rcu_periph_clock_enable  gd32f10x_rcu.o
    0x080093d0   0x080093d0   0x00000020   Code   RO         2130    i.rcu_periph_reset_disable  gd32f10x_rcu.o
    0x080093f0   0x080093f0   0x00000020   Code   RO         2131    i.rcu_periph_reset_enable  gd32f10x_rcu.o
    0x08009410   0x08009410   0x000000c4   Code   RO            5    i.system_clock_108m_hxtal  system_gd32f10x.o
    0x080094d4   0x080094d4   0x00000008   Code   RO            6    i.system_clock_config  system_gd32f10x.o
    0x080094dc   0x080094dc   0x00000028   Code   RO         1965    i.systick_clksource_set  gd32f10x_misc.o
    0x08009504   0x08009504   0x00000044   Code   RO         3858    i.systick_config    systick.o
    0x08009548   0x08009548   0x000000dc   Code   RO         2951    i.timer_deinit      gd32f10x_timer.o
    0x08009624   0x08009624   0x0000000a   Code   RO         2952    i.timer_disable     gd32f10x_timer.o
    0x0800962e   0x0800962e   0x0000000a   Code   RO         2956    i.timer_enable      gd32f10x_timer.o
    0x08009638   0x08009638   0x000000e0   Code   RO         2966    i.timer_init        gd32f10x_timer.o
    0x08009718   0x08009718   0x00000008   Code   RO         2973    i.timer_interrupt_enable  gd32f10x_timer.o
    0x08009720   0x08009720   0x00000006   Code   RO         2974    i.timer_interrupt_flag_clear  gd32f10x_timer.o
    0x08009726   0x08009726   0x00000018   Code   RO         2975    i.timer_interrupt_flag_get  gd32f10x_timer.o
    0x0800973e   0x0800973e   0x00000002   PAD
    0x08009740   0x08009740   0x00000090   Code   RO         3349    i.usart_baudrate_set  gd32f10x_usart.o
    0x080097d0   0x080097d0   0x0000000a   Code   RO         3350    i.usart_data_receive  gd32f10x_usart.o
    0x080097da   0x080097da   0x00000008   Code   RO         3351    i.usart_data_transmit  gd32f10x_usart.o
    0x080097e2   0x080097e2   0x00000002   PAD
    0x080097e4   0x080097e4   0x00000090   Code   RO         3352    i.usart_deinit      gd32f10x_usart.o
    0x08009874   0x08009874   0x0000000a   Code   RO         3353    i.usart_disable     gd32f10x_usart.o
    0x0800987e   0x0800987e   0x0000000a   Code   RO         3356    i.usart_enable      gd32f10x_usart.o
    0x08009888   0x08009888   0x0000001e   Code   RO         3358    i.usart_flag_get    gd32f10x_usart.o
    0x080098a6   0x080098a6   0x00000010   Code   RO         3362    i.usart_hardware_flow_cts_config  gd32f10x_usart.o
    0x080098b6   0x080098b6   0x00000010   Code   RO         3363    i.usart_hardware_flow_rts_config  gd32f10x_usart.o
    0x080098c6   0x080098c6   0x0000001a   Code   RO         3364    i.usart_interrupt_disable  gd32f10x_usart.o
    0x080098e0   0x080098e0   0x0000001a   Code   RO         3365    i.usart_interrupt_enable  gd32f10x_usart.o
    0x080098fa   0x080098fa   0x0000001a   Code   RO         3366    i.usart_interrupt_flag_clear  gd32f10x_usart.o
    0x08009914   0x08009914   0x00000038   Code   RO         3367    i.usart_interrupt_flag_get  gd32f10x_usart.o
    0x0800994c   0x0800994c   0x00000010   Code   RO         3377    i.usart_parity_config  gd32f10x_usart.o
    0x0800995c   0x0800995c   0x00000010   Code   RO         3379    i.usart_receive_config  gd32f10x_usart.o
    0x0800996c   0x0800996c   0x00000010   Code   RO         3385    i.usart_stop_bit_set  gd32f10x_usart.o
    0x0800997c   0x0800997c   0x00000010   Code   RO         3389    i.usart_transmit_config  gd32f10x_usart.o
    0x0800998c   0x0800998c   0x00000010   Code   RO         3390    i.usart_word_length_set  gd32f10x_usart.o
    0x0800999c   0x0800999c   0x0000000c   Data   RO         5825    .constdata          mc_w.l(mktime.o)
    0x080099a8   0x080099a8   0x0000000c   Data   RO         6151    .constdata          mc_w.l(localtime_i.o)
    0x080099b4   0x080099b4   0x00000092   Data   RO         4927    .conststring        wh_nb73.o
    0x08009a46   0x08009a46   0x00000002   PAD
    0x08009a48   0x08009a48   0x00000020   Data   RO         6164    Region$$Table       anon$$obj.o


    Execution Region RW_IRAM1 (Exec base: 0x20000000, Load base: 0x08009a68, Size: 0x00003e68, Max: 0x00005000, ABSOLUTE, COMPRESSED[0x000007dc])

    Exec Addr    Load Addr    Size         Type   Attr      Idx    E Section Name        Object

    0x20000000   COMPRESSED   0x00000004   Data   RW            7    .data               system_gd32f10x.o
    0x20000004   COMPRESSED   0x00000008   Data   RW         3859    .data               systick.o
    0x2000000c   COMPRESSED   0x0000000a   Data   RW         3897    .data               init.o
    0x20000016   COMPRESSED   0x00000002   PAD
    0x20000018   COMPRESSED   0x000003dd   Data   RW         4018    .data               modbus.o
    0x200003f5   COMPRESSED   0x00000001   PAD
    0x200003f6   COMPRESSED   0x00000005   Data   RW         4347    .data               commucateslave.o
    0x200003fb   COMPRESSED   0x00000001   PAD
    0x200003fc   COMPRESSED   0x00000048   Data   RW         4457    .data               protocol.o
    0x20000444   COMPRESSED   0x00000022   Data   RW         4687    .data               ds18b20.o
    0x20000466   COMPRESSED   0x00000002   PAD
    0x20000468   COMPRESSED   0x00000004   Data   RW         4779    .data               isl1208.o
    0x2000046c   COMPRESSED   0x0000017d   Data   RW         4928    .data               wh_nb73.o
    0x200005e9   COMPRESSED   0x00000003   PAD
    0x200005ec   COMPRESSED   0x00000650   Data   RW         5366    .data               cj2301.o
    0x20000c3c   COMPRESSED   0x0000000b   Data   RW         5432    .data               hw_timer.o
    0x20000c47   COMPRESSED   0x00000009   Data   RW         5505    .data               hw_uart.o
    0x20000c50   COMPRESSED   0x0000001c   Data   RW         5629    .data               hw_exit.o
    0x20000c6c   COMPRESSED   0x00000004   Data   RW         5698    .data               hw_fmc.o
    0x20000c70   COMPRESSED   0x00000004   Data   RW         5818    .data               mc_w.l(rand.o)
    0x20000c74   COMPRESSED   0x00000004   Data   RW         6138    .data               mc_w.l(stdout.o)
    0x20000c78        -       0x000002a4   Zero   RW         3896    .bss                init.o
    0x20000f1c        -       0x000003d4   Zero   RW         4017    .bss                modbus.o
    0x200012f0        -       0x0000009c   Zero   RW         4346    .bss                commucateslave.o
    0x2000138c        -       0x00000195   Zero   RW         4456    .bss                protocol.o
    0x20001521   COMPRESSED   0x00000003   PAD
    0x20001524        -       0x0000000c   Zero   RW         4778    .bss                isl1208.o
    0x20001530        -       0x0000060e   Zero   RW         4926    .bss                wh_nb73.o
    0x20001b3e        -       0x000002fd   Zero   RW         5504    .bss                hw_uart.o
    0x20001e3b   COMPRESSED   0x00000001   PAD
    0x20001e3c        -       0x0000002c   Zero   RW         6148    .bss                mc_w.l(localtime_w.o)
    0x20001e68        -       0x00002000   Zero   RW          137    STACK               startup_gd32f10x_md.o


==============================================================================

Image component sizes


      Code (inc. data)   RO Data    RW Data    ZI Data      Debug   Object Name

      1170        138          0       1616          0       5823   cj2301.o
       636         70          0          5        156      27736   commucateslave.o
      1764        218          0         34          0       8252   ds18b20.o
       224         16          0          0          0       1794   gd32f10x_exti.o
       736         66          0          0          0       5299   gd32f10x_fmc.o
       484         12          0          0          0       2991   gd32f10x_gpio.o
       414         12          0          0          0       6708   gd32f10x_i2c.o
        26          0          0          0          0      11249   gd32f10x_it.o
       276         34          0          0          0       2959   gd32f10x_misc.o
       388         40          0          0          0       2732   gd32f10x_rcu.o
       502         64          0          0          0       4656   gd32f10x_timer.o
       602         16          0          0          0      10810   gd32f10x_usart.o
      2608        556          0         28          0       4221   hw_exit.o
      1156         92          0          4          0       5504   hw_fmc.o
        68         14          0          0          0        471   hw_i2c.o
       646         66          0         11          0       3982   hw_timer.o
      1448        210          0          9        765      11931   hw_uart.o
      1000        208          0         10        676       6002   init.o
      1186        126          0          4         12       7163   isl1208.o
       160         12          0          0          0       3605   main.o
      4522        506          0        989        980      37515   modbus.o
      4404        380          0         72        405      22238   protocol.o
        36          8        260          0       8192        856   startup_gd32f10x_md.o
       336         30          0          4          0      58743   system_gd32f10x.o
       260         34          0          8          0       1773   systick.o
      9054       1082        146        381       1550      46202   wh_nb73.o

    ----------------------------------------------------------------------
     34144       4010        440       3184      12740     301215   Object Totals
         0          0         32          0          0          0   (incl. Generated)
        38          0          2          9          4          0   (incl. Padding)

    ----------------------------------------------------------------------

      Code (inc. data)   RO Data    RW Data    ZI Data      Debug   Library Member Name

        86          0          0          0          0          0   __dczerorl2.o
         0          0          0          0          0          0   entry.o
         0          0          0          0          0          0   entry10a.o
         0          0          0          0          0          0   entry11a.o
         8          4          0          0          0          0   entry2.o
         4          0          0          0          0          0   entry5.o
         0          0          0          0          0          0   entry7b.o
         0          0          0          0          0          0   entry8b.o
         8          4          0          0          0          0   entry9a.o
        30          0          0          0          0          0   handlers.o
        36          8          0          0          0         68   init.o
         0          0          0          0          0          0   iusefp.o
        30          0          0          0          0         68   llshl.o
        36          0          0          0          0         68   llsshr.o
        32          0          0          0          0         68   llushr.o
       140          6         12          0          0         76   localtime_i.o
        12          6          0          0         44         68   localtime_w.o
        26          0          0          0          0         80   memcmp.o
        36          0          0          0          0         68   memcpya.o
        36          0          0          0          0        108   memseta.o
       168         18         12          0          0         80   mktime.o
      2258         90          0          0          0        452   printfa.o
        36         10          0          4          0        136   rand.o
         0          0          0          4          0          0   stdout.o
        14          0          0          0          0         68   strlen.o
        36          0          0          0          0         80   strstr.o
        44          0          0          0          0         80   uidiv.o
        98          0          0          0          0         92   uldiv.o
        48          0          0          0          0         68   cdrcmple.o
        56          0          0          0          0         88   d2f.o
       334          0          0          0          0        148   dadd.o
       222          0          0          0          0        100   ddiv.o
       186          0          0          0          0        176   depilogue.o
        48          0          0          0          0         68   dfixul.o
       228          0          0          0          0         96   dmul.o
        38          0          0          0          0         68   f2d.o
       176          0          0          0          0        140   fadd.o
       124          0          0          0          0         88   fdiv.o
       110          0          0          0          0        168   fepilogue.o
        40          0          0          0          0         68   ffixui.o
        18          0          0          0          0         68   fflti.o
        10          0          0          0          0         68   ffltui.o
       100          0          0          0          0         76   fmul.o

    ----------------------------------------------------------------------
      4920        146         24          8         44       3148   Library Totals
         8          0          0          0          0          0   (incl. Padding)

    ----------------------------------------------------------------------

      Code (inc. data)   RO Data    RW Data    ZI Data      Debug   Library Name

      3174        146         24          8         44       1660   mc_w.l
      1738          0          0          0          0       1488   mf_w.l

    ----------------------------------------------------------------------
      4920        146         24          8         44       3148   Library Totals

    ----------------------------------------------------------------------

==============================================================================


      Code (inc. data)   RO Data    RW Data    ZI Data      Debug   

     39064       4156        464       3192      12784     284575   Grand Totals
     39064       4156        464       2012      12784     284575   ELF Image Totals (compressed)
     39064       4156        464       2012          0          0   ROM Totals

==============================================================================

    Total RO  Size (Code + RO Data)                39528 (  38.60kB)
    Total RW  Size (RW Data + ZI Data)             15976 (  15.60kB)
    Total ROM Size (Code + RO Data + RW Data)      41540 (  40.57kB)

==============================================================================

